
nimble_linux:     file format elf32-littlearm


Disassembly of section .init:

00011628 <_init>:
   11628:	e92d4008 	push	{r3, lr}
   1162c:	eb0003bb 	bl	12520 <call_weak_fn>
   11630:	e8bd8008 	pop	{r3, pc}

Disassembly of section .plt:

00011634 <.plt>:
   11634:	e52de004 	push	{lr}		; (str lr, [sp, #-4]!)
   11638:	e59fe004 	ldr	lr, [pc, #4]	; 11644 <.plt+0x10>
   1163c:	e08fe00e 	add	lr, pc, lr
   11640:	e5bef008 	ldr	pc, [lr, #8]!
   11644:	0003d9bc 	.word	0x0003d9bc

00011648 <open@plt>:
   11648:	e28fc600 	add	ip, pc, #0, 12
   1164c:	e28cca3d 	add	ip, ip, #249856	; 0x3d000
   11650:	e5bcf9bc 	ldr	pc, [ip, #2492]!	; 0x9bc

00011654 <abort@plt>:
   11654:	e28fc600 	add	ip, pc, #0, 12
   11658:	e28cca3d 	add	ip, ip, #249856	; 0x3d000
   1165c:	e5bcf9b4 	ldr	pc, [ip, #2484]!	; 0x9b4

00011660 <pthread_attr_getschedparam@plt>:
   11660:	e28fc600 	add	ip, pc, #0, 12
   11664:	e28cca3d 	add	ip, ip, #249856	; 0x3d000
   11668:	e5bcf9ac 	ldr	pc, [ip, #2476]!	; 0x9ac

0001166c <memcmp@plt>:
   1166c:	e28fc600 	add	ip, pc, #0, 12
   11670:	e28cca3d 	add	ip, ip, #249856	; 0x3d000
   11674:	e5bcf9a4 	ldr	pc, [ip, #2468]!	; 0x9a4

00011678 <clock_gettime@plt>:
   11678:	e28fc600 	add	ip, pc, #0, 12
   1167c:	e28cca3d 	add	ip, ip, #249856	; 0x3d000
   11680:	e5bcf99c 	ldr	pc, [ip, #2460]!	; 0x99c

00011684 <__libc_start_main@plt>:
   11684:	e28fc600 	add	ip, pc, #0, 12
   11688:	e28cca3d 	add	ip, ip, #249856	; 0x3d000
   1168c:	e5bcf994 	ldr	pc, [ip, #2452]!	; 0x994

00011690 <signal@plt>:
   11690:	e28fc600 	add	ip, pc, #0, 12
   11694:	e28cca3d 	add	ip, ip, #249856	; 0x3d000
   11698:	e5bcf98c 	ldr	pc, [ip, #2444]!	; 0x98c

0001169c <pthread_attr_setschedpolicy@plt>:
   1169c:	e28fc600 	add	ip, pc, #0, 12
   116a0:	e28cca3d 	add	ip, ip, #249856	; 0x3d000
   116a4:	e5bcf984 	ldr	pc, [ip, #2436]!	; 0x984

000116a8 <__gmon_start__@plt>:
   116a8:	e28fc600 	add	ip, pc, #0, 12
   116ac:	e28cca3d 	add	ip, ip, #249856	; 0x3d000
   116b0:	e5bcf97c 	ldr	pc, [ip, #2428]!	; 0x97c

000116b4 <timer_create@plt>:
   116b4:	e28fc600 	add	ip, pc, #0, 12
   116b8:	e28cca3d 	add	ip, ip, #249856	; 0x3d000
   116bc:	e5bcf974 	ldr	pc, [ip, #2420]!	; 0x974

000116c0 <pthread_mutexattr_settype@plt>:
   116c0:	e28fc600 	add	ip, pc, #0, 12
   116c4:	e28cca3d 	add	ip, ip, #249856	; 0x3d000
   116c8:	e5bcf96c 	ldr	pc, [ip, #2412]!	; 0x96c

000116cc <strncpy@plt>:
   116cc:	e28fc600 	add	ip, pc, #0, 12
   116d0:	e28cca3d 	add	ip, ip, #249856	; 0x3d000
   116d4:	e5bcf964 	ldr	pc, [ip, #2404]!	; 0x964

000116d8 <fgets@plt>:
   116d8:	e28fc600 	add	ip, pc, #0, 12
   116dc:	e28cca3d 	add	ip, ip, #249856	; 0x3d000
   116e0:	e5bcf95c 	ldr	pc, [ip, #2396]!	; 0x95c

000116e4 <system@plt>:
   116e4:	e28fc600 	add	ip, pc, #0, 12
   116e8:	e28cca3d 	add	ip, ip, #249856	; 0x3d000
   116ec:	e5bcf954 	ldr	pc, [ip, #2388]!	; 0x954

000116f0 <putchar@plt>:
   116f0:	e28fc600 	add	ip, pc, #0, 12
   116f4:	e28cca3d 	add	ip, ip, #249856	; 0x3d000
   116f8:	e5bcf94c 	ldr	pc, [ip, #2380]!	; 0x94c

000116fc <strcasecmp@plt>:
   116fc:	e28fc600 	add	ip, pc, #0, 12
   11700:	e28cca3d 	add	ip, ip, #249856	; 0x3d000
   11704:	e5bcf944 	ldr	pc, [ip, #2372]!	; 0x944

00011708 <pclose@plt>:
   11708:	e28fc600 	add	ip, pc, #0, 12
   1170c:	e28cca3d 	add	ip, ip, #249856	; 0x3d000
   11710:	e5bcf93c 	ldr	pc, [ip, #2364]!	; 0x93c

00011714 <sem_getvalue@plt>:
   11714:	e28fc600 	add	ip, pc, #0, 12
   11718:	e28cca3d 	add	ip, ip, #249856	; 0x3d000
   1171c:	e5bcf934 	ldr	pc, [ip, #2356]!	; 0x934

00011720 <listen@plt>:
   11720:	e28fc600 	add	ip, pc, #0, 12
   11724:	e28cca3d 	add	ip, ip, #249856	; 0x3d000
   11728:	e5bcf92c 	ldr	pc, [ip, #2348]!	; 0x92c

0001172c <calloc@plt>:
   1172c:	e28fc600 	add	ip, pc, #0, 12
   11730:	e28cca3d 	add	ip, ip, #249856	; 0x3d000
   11734:	e5bcf924 	ldr	pc, [ip, #2340]!	; 0x924

00011738 <pthread_cond_wait@plt>:
   11738:	e28fc600 	add	ip, pc, #0, 12
   1173c:	e28cca3d 	add	ip, ip, #249856	; 0x3d000
   11740:	e5bcf91c 	ldr	pc, [ip, #2332]!	; 0x91c

00011744 <sem_init@plt>:
   11744:	e28fc600 	add	ip, pc, #0, 12
   11748:	e28cca3d 	add	ip, ip, #249856	; 0x3d000
   1174c:	e5bcf914 	ldr	pc, [ip, #2324]!	; 0x914

00011750 <memset@plt>:
   11750:	e28fc600 	add	ip, pc, #0, 12
   11754:	e28cca3d 	add	ip, ip, #249856	; 0x3d000
   11758:	e5bcf90c 	ldr	pc, [ip, #2316]!	; 0x90c

0001175c <sem_destroy@plt>:
   1175c:	e28fc600 	add	ip, pc, #0, 12
   11760:	e28cca3d 	add	ip, ip, #249856	; 0x3d000
   11764:	e5bcf904 	ldr	pc, [ip, #2308]!	; 0x904

00011768 <pthread_attr_setschedparam@plt>:
   11768:	e28fc600 	add	ip, pc, #0, 12
   1176c:	e28cca3d 	add	ip, ip, #249856	; 0x3d000
   11770:	e5bcf8fc 	ldr	pc, [ip, #2300]!	; 0x8fc

00011774 <__assert_fail@plt>:
   11774:	e28fc600 	add	ip, pc, #0, 12
   11778:	e28cca3d 	add	ip, ip, #249856	; 0x3d000
   1177c:	e5bcf8f4 	ldr	pc, [ip, #2292]!	; 0x8f4

00011780 <usleep@plt>:
   11780:	e28fc600 	add	ip, pc, #0, 12
   11784:	e28cca3d 	add	ip, ip, #249856	; 0x3d000
   11788:	e5bcf8ec 	ldr	pc, [ip, #2284]!	; 0x8ec

0001178c <strtoull@plt>:
   1178c:	e28fc600 	add	ip, pc, #0, 12
   11790:	e28cca3d 	add	ip, ip, #249856	; 0x3d000
   11794:	e5bcf8e4 	ldr	pc, [ip, #2276]!	; 0x8e4

00011798 <free@plt>:
   11798:	e28fc600 	add	ip, pc, #0, 12
   1179c:	e28cca3d 	add	ip, ip, #249856	; 0x3d000
   117a0:	e5bcf8dc 	ldr	pc, [ip, #2268]!	; 0x8dc

000117a4 <read@plt>:
   117a4:	e28fc600 	add	ip, pc, #0, 12
   117a8:	e28cca3d 	add	ip, ip, #249856	; 0x3d000
   117ac:	e5bcf8d4 	ldr	pc, [ip, #2260]!	; 0x8d4

000117b0 <write@plt>:
   117b0:	e28fc600 	add	ip, pc, #0, 12
   117b4:	e28cca3d 	add	ip, ip, #249856	; 0x3d000
   117b8:	e5bcf8cc 	ldr	pc, [ip, #2252]!	; 0x8cc

000117bc <timer_settime@plt>:
   117bc:	e28fc600 	add	ip, pc, #0, 12
   117c0:	e28cca3d 	add	ip, ip, #249856	; 0x3d000
   117c4:	e5bcf8c4 	ldr	pc, [ip, #2244]!	; 0x8c4

000117c8 <accept@plt>:
   117c8:	e28fc600 	add	ip, pc, #0, 12
   117cc:	e28cca3d 	add	ip, ip, #249856	; 0x3d000
   117d0:	e5bcf8bc 	ldr	pc, [ip, #2236]!	; 0x8bc

000117d4 <pthread_mutex_unlock@plt>:
   117d4:	e28fc600 	add	ip, pc, #0, 12
   117d8:	e28cca3d 	add	ip, ip, #249856	; 0x3d000
   117dc:	e5bcf8b4 	ldr	pc, [ip, #2228]!	; 0x8b4

000117e0 <socket@plt>:
   117e0:	e28fc600 	add	ip, pc, #0, 12
   117e4:	e28cca3d 	add	ip, ip, #249856	; 0x3d000
   117e8:	e5bcf8ac 	ldr	pc, [ip, #2220]!	; 0x8ac

000117ec <ioctl@plt>:
   117ec:	e28fc600 	add	ip, pc, #0, 12
   117f0:	e28cca3d 	add	ip, ip, #249856	; 0x3d000
   117f4:	e5bcf8a4 	ldr	pc, [ip, #2212]!	; 0x8a4

000117f8 <pthread_mutexattr_destroy@plt>:
   117f8:	e28fc600 	add	ip, pc, #0, 12
   117fc:	e28cca3d 	add	ip, ip, #249856	; 0x3d000
   11800:	e5bcf89c 	ldr	pc, [ip, #2204]!	; 0x89c

00011804 <pthread_mutex_lock@plt>:
   11804:	e28fc600 	add	ip, pc, #0, 12
   11808:	e28cca3d 	add	ip, ip, #249856	; 0x3d000
   1180c:	e5bcf894 	ldr	pc, [ip, #2196]!	; 0x894

00011810 <strlen@plt>:
   11810:	e28fc600 	add	ip, pc, #0, 12
   11814:	e28cca3d 	add	ip, ip, #249856	; 0x3d000
   11818:	e5bcf88c 	ldr	pc, [ip, #2188]!	; 0x88c

0001181c <sscanf@plt>:
   1181c:	e28fc600 	add	ip, pc, #0, 12
   11820:	e28cca3d 	add	ip, ip, #249856	; 0x3d000
   11824:	e5bcf884 	ldr	pc, [ip, #2180]!	; 0x884

00011828 <unlink@plt>:
   11828:	e28fc600 	add	ip, pc, #0, 12
   1182c:	e28cca3d 	add	ip, ip, #249856	; 0x3d000
   11830:	e5bcf87c 	ldr	pc, [ip, #2172]!	; 0x87c

00011834 <strtoul@plt>:
   11834:	e28fc600 	add	ip, pc, #0, 12
   11838:	e28cca3d 	add	ip, ip, #249856	; 0x3d000
   1183c:	e5bcf874 	ldr	pc, [ip, #2164]!	; 0x874

00011840 <pthread_create@plt>:
   11840:	e28fc600 	add	ip, pc, #0, 12
   11844:	e28cca3d 	add	ip, ip, #249856	; 0x3d000
   11848:	e5bcf86c 	ldr	pc, [ip, #2156]!	; 0x86c

0001184c <memcpy@plt>:
   1184c:	e28fc600 	add	ip, pc, #0, 12
   11850:	e28cca3d 	add	ip, ip, #249856	; 0x3d000
   11854:	e5bcf864 	ldr	pc, [ip, #2148]!	; 0x864

00011858 <pthread_cond_signal@plt>:
   11858:	e28fc600 	add	ip, pc, #0, 12
   1185c:	e28cca3d 	add	ip, ip, #249856	; 0x3d000
   11860:	e5bcf85c 	ldr	pc, [ip, #2140]!	; 0x85c

00011864 <__ctype_tolower_loc@plt>:
   11864:	e28fc600 	add	ip, pc, #0, 12
   11868:	e28cca3d 	add	ip, ip, #249856	; 0x3d000
   1186c:	e5bcf854 	ldr	pc, [ip, #2132]!	; 0x854

00011870 <strtol@plt>:
   11870:	e28fc600 	add	ip, pc, #0, 12
   11874:	e28cca3d 	add	ip, ip, #249856	; 0x3d000
   11878:	e5bcf84c 	ldr	pc, [ip, #2124]!	; 0x84c

0001187c <strcpy@plt>:
   1187c:	e28fc600 	add	ip, pc, #0, 12
   11880:	e28cca3d 	add	ip, ip, #249856	; 0x3d000
   11884:	e5bcf844 	ldr	pc, [ip, #2116]!	; 0x844

00011888 <sem_post@plt>:
   11888:	e28fc600 	add	ip, pc, #0, 12
   1188c:	e28cca3d 	add	ip, ip, #249856	; 0x3d000
   11890:	e5bcf83c 	ldr	pc, [ip, #2108]!	; 0x83c

00011894 <pthread_cond_destroy@plt>:
   11894:	e28fc600 	add	ip, pc, #0, 12
   11898:	e28cca3d 	add	ip, ip, #249856	; 0x3d000
   1189c:	e5bcf834 	ldr	pc, [ip, #2100]!	; 0x834

000118a0 <pthread_mutex_destroy@plt>:
   118a0:	e28fc600 	add	ip, pc, #0, 12
   118a4:	e28cca3d 	add	ip, ip, #249856	; 0x3d000
   118a8:	e5bcf82c 	ldr	pc, [ip, #2092]!	; 0x82c

000118ac <printf@plt>:
   118ac:	e28fc600 	add	ip, pc, #0, 12
   118b0:	e28cca3d 	add	ip, ip, #249856	; 0x3d000
   118b4:	e5bcf824 	ldr	pc, [ip, #2084]!	; 0x824

000118b8 <raise@plt>:
   118b8:	e28fc600 	add	ip, pc, #0, 12
   118bc:	e28cca3d 	add	ip, ip, #249856	; 0x3d000
   118c0:	e5bcf81c 	ldr	pc, [ip, #2076]!	; 0x81c

000118c4 <pthread_mutex_init@plt>:
   118c4:	e28fc600 	add	ip, pc, #0, 12
   118c8:	e28cca3d 	add	ip, ip, #249856	; 0x3d000
   118cc:	e5bcf814 	ldr	pc, [ip, #2068]!	; 0x814

000118d0 <bind@plt>:
   118d0:	e28fc600 	add	ip, pc, #0, 12
   118d4:	e28cca3d 	add	ip, ip, #249856	; 0x3d000
   118d8:	e5bcf80c 	ldr	pc, [ip, #2060]!	; 0x80c

000118dc <select@plt>:
   118dc:	e28fc600 	add	ip, pc, #0, 12
   118e0:	e28cca3d 	add	ip, ip, #249856	; 0x3d000
   118e4:	e5bcf804 	ldr	pc, [ip, #2052]!	; 0x804

000118e8 <close@plt>:
   118e8:	e28fc600 	add	ip, pc, #0, 12
   118ec:	e28cca3d 	add	ip, ip, #249856	; 0x3d000
   118f0:	e5bcf7fc 	ldr	pc, [ip, #2044]!	; 0x7fc

000118f4 <time@plt>:
   118f4:	e28fc600 	add	ip, pc, #0, 12
   118f8:	e28cca3d 	add	ip, ip, #249856	; 0x3d000
   118fc:	e5bcf7f4 	ldr	pc, [ip, #2036]!	; 0x7f4

00011900 <__ctype_b_loc@plt>:
   11900:	e28fc600 	add	ip, pc, #0, 12
   11904:	e28cca3d 	add	ip, ip, #249856	; 0x3d000
   11908:	e5bcf7ec 	ldr	pc, [ip, #2028]!	; 0x7ec

0001190c <fprintf@plt>:
   1190c:	e28fc600 	add	ip, pc, #0, 12
   11910:	e28cca3d 	add	ip, ip, #249856	; 0x3d000
   11914:	e5bcf7e4 	ldr	pc, [ip, #2020]!	; 0x7e4

00011918 <malloc@plt>:
   11918:	e28fc600 	add	ip, pc, #0, 12
   1191c:	e28cca3d 	add	ip, ip, #249856	; 0x3d000
   11920:	e5bcf7dc 	ldr	pc, [ip, #2012]!	; 0x7dc

00011924 <sem_timedwait@plt>:
   11924:	e28fc600 	add	ip, pc, #0, 12
   11928:	e28cca3d 	add	ip, ip, #249856	; 0x3d000
   1192c:	e5bcf7d4 	ldr	pc, [ip, #2004]!	; 0x7d4

00011930 <pthread_attr_init@plt>:
   11930:	e28fc600 	add	ip, pc, #0, 12
   11934:	e28cca3d 	add	ip, ip, #249856	; 0x3d000
   11938:	e5bcf7cc 	ldr	pc, [ip, #1996]!	; 0x7cc

0001193c <strtok@plt>:
   1193c:	e28fc600 	add	ip, pc, #0, 12
   11940:	e28cca3d 	add	ip, ip, #249856	; 0x3d000
   11944:	e5bcf7c4 	ldr	pc, [ip, #1988]!	; 0x7c4

00011948 <strtok_r@plt>:
   11948:	e28fc600 	add	ip, pc, #0, 12
   1194c:	e28cca3d 	add	ip, ip, #249856	; 0x3d000
   11950:	e5bcf7bc 	ldr	pc, [ip, #1980]!	; 0x7bc

00011954 <timer_delete@plt>:
   11954:	e28fc600 	add	ip, pc, #0, 12
   11958:	e28cca3d 	add	ip, ip, #249856	; 0x3d000
   1195c:	e5bcf7b4 	ldr	pc, [ip, #1972]!	; 0x7b4

00011960 <sleep@plt>:
   11960:	e28fc600 	add	ip, pc, #0, 12
   11964:	e28cca3d 	add	ip, ip, #249856	; 0x3d000
   11968:	e5bcf7ac 	ldr	pc, [ip, #1964]!	; 0x7ac

0001196c <strcat@plt>:
   1196c:	e28fc600 	add	ip, pc, #0, 12
   11970:	e28cca3d 	add	ip, ip, #249856	; 0x3d000
   11974:	e5bcf7a4 	ldr	pc, [ip, #1956]!	; 0x7a4

00011978 <memmove@plt>:
   11978:	e28fc600 	add	ip, pc, #0, 12
   1197c:	e28cca3d 	add	ip, ip, #249856	; 0x3d000
   11980:	e5bcf79c 	ldr	pc, [ip, #1948]!	; 0x79c

00011984 <popen@plt>:
   11984:	e28fc600 	add	ip, pc, #0, 12
   11988:	e28cca3d 	add	ip, ip, #249856	; 0x3d000
   1198c:	e5bcf794 	ldr	pc, [ip, #1940]!	; 0x794

00011990 <puts@plt>:
   11990:	e28fc600 	add	ip, pc, #0, 12
   11994:	e28cca3d 	add	ip, ip, #249856	; 0x3d000
   11998:	e5bcf78c 	ldr	pc, [ip, #1932]!	; 0x78c

0001199c <getpid@plt>:
   1199c:	e28fc600 	add	ip, pc, #0, 12
   119a0:	e28cca3d 	add	ip, ip, #249856	; 0x3d000
   119a4:	e5bcf784 	ldr	pc, [ip, #1924]!	; 0x784

000119a8 <pthread_attr_destroy@plt>:
   119a8:	e28fc600 	add	ip, pc, #0, 12
   119ac:	e28cca3d 	add	ip, ip, #249856	; 0x3d000
   119b0:	e5bcf77c 	ldr	pc, [ip, #1916]!	; 0x77c

000119b4 <rand@plt>:
   119b4:	e28fc600 	add	ip, pc, #0, 12
   119b8:	e28cca3d 	add	ip, ip, #249856	; 0x3d000
   119bc:	e5bcf774 	ldr	pc, [ip, #1908]!	; 0x774

000119c0 <snprintf@plt>:
   119c0:	e28fc600 	add	ip, pc, #0, 12
   119c4:	e28cca3d 	add	ip, ip, #249856	; 0x3d000
   119c8:	e5bcf76c 	ldr	pc, [ip, #1900]!	; 0x76c

000119cc <fcntl@plt>:
   119cc:	e28fc600 	add	ip, pc, #0, 12
   119d0:	e28cca3d 	add	ip, ip, #249856	; 0x3d000
   119d4:	e5bcf764 	ldr	pc, [ip, #1892]!	; 0x764

000119d8 <pthread_cond_init@plt>:
   119d8:	e28fc600 	add	ip, pc, #0, 12
   119dc:	e28cca3d 	add	ip, ip, #249856	; 0x3d000
   119e0:	e5bcf75c 	ldr	pc, [ip, #1884]!	; 0x75c

000119e4 <nanosleep@plt>:
   119e4:	e28fc600 	add	ip, pc, #0, 12
   119e8:	e28cca3d 	add	ip, ip, #249856	; 0x3d000
   119ec:	e5bcf754 	ldr	pc, [ip, #1876]!	; 0x754

000119f0 <realloc@plt>:
   119f0:	e28fc600 	add	ip, pc, #0, 12
   119f4:	e28cca3d 	add	ip, ip, #249856	; 0x3d000
   119f8:	e5bcf74c 	ldr	pc, [ip, #1868]!	; 0x74c

000119fc <pthread_mutexattr_init@plt>:
   119fc:	e28fc600 	add	ip, pc, #0, 12
   11a00:	e28cca3d 	add	ip, ip, #249856	; 0x3d000
   11a04:	e5bcf744 	ldr	pc, [ip, #1860]!	; 0x744

00011a08 <sem_wait@plt>:
   11a08:	e28fc600 	add	ip, pc, #0, 12
   11a0c:	e28cca3d 	add	ip, ip, #249856	; 0x3d000
   11a10:	e5bcf73c 	ldr	pc, [ip, #1852]!	; 0x73c

00011a14 <strcmp@plt>:
   11a14:	e28fc600 	add	ip, pc, #0, 12
   11a18:	e28cca3d 	add	ip, ip, #249856	; 0x3d000
   11a1c:	e5bcf734 	ldr	pc, [ip, #1844]!	; 0x734

00011a20 <__errno_location@plt>:
   11a20:	e28fc600 	add	ip, pc, #0, 12
   11a24:	e28cca3d 	add	ip, ip, #249856	; 0x3d000
   11a28:	e5bcf72c 	ldr	pc, [ip, #1836]!	; 0x72c

00011a2c <pthread_self@plt>:
   11a2c:	e28fc600 	add	ip, pc, #0, 12
   11a30:	e28cca3d 	add	ip, ip, #249856	; 0x3d000
   11a34:	e5bcf724 	ldr	pc, [ip, #1828]!	; 0x724

00011a38 <pthread_cancel@plt>:
   11a38:	e28fc600 	add	ip, pc, #0, 12
   11a3c:	e28cca3d 	add	ip, ip, #249856	; 0x3d000
   11a40:	e5bcf71c 	ldr	pc, [ip, #1820]!	; 0x71c

00011a44 <sprintf@plt>:
   11a44:	e28fc600 	add	ip, pc, #0, 12
   11a48:	e28cca3d 	add	ip, ip, #249856	; 0x3d000
   11a4c:	e5bcf714 	ldr	pc, [ip, #1812]!	; 0x714

00011a50 <pthread_join@plt>:
   11a50:	e28fc600 	add	ip, pc, #0, 12
   11a54:	e28cca3d 	add	ip, ip, #249856	; 0x3d000
   11a58:	e5bcf70c 	ldr	pc, [ip, #1804]!	; 0x70c

00011a5c <fputs@plt>:
   11a5c:	e28fc600 	add	ip, pc, #0, 12
   11a60:	e28cca3d 	add	ip, ip, #249856	; 0x3d000
   11a64:	e5bcf704 	ldr	pc, [ip, #1796]!	; 0x704

Disassembly of section .text:

00011a68 <main>:
   11a68:	e92d43f0 	push	{r4, r5, r6, r7, r8, r9, lr}
   11a6c:	e3500001 	cmp	r0, #1
   11a70:	e59f68ec 	ldr	r6, [pc, #2284]	; 12364 <main+0x8fc>
   11a74:	e24dd01c 	sub	sp, sp, #28
   11a78:	e08f6006 	add	r6, pc, r6
   11a7c:	da000016 	ble	11adc <main+0x74>
   11a80:	e5915004 	ldr	r5, [r1, #4]
   11a84:	e1a07001 	mov	r7, r1
   11a88:	e3550000 	cmp	r5, #0
   11a8c:	0a000012 	beq	11adc <main+0x74>
   11a90:	e1a00005 	mov	r0, r5
   11a94:	e59f48cc 	ldr	r4, [pc, #2252]	; 12368 <main+0x900>
   11a98:	ebffff5c 	bl	11810 <strlen@plt>
   11a9c:	e1a01005 	mov	r1, r5
   11aa0:	e08f4004 	add	r4, pc, r4
   11aa4:	e2844e77 	add	r4, r4, #1904	; 0x770
   11aa8:	e284400c 	add	r4, r4, #12
   11aac:	e1a02000 	mov	r2, r0
   11ab0:	e1a00004 	mov	r0, r4
   11ab4:	ebffff64 	bl	1184c <memcpy@plt>
   11ab8:	e5975004 	ldr	r5, [r7, #4]
   11abc:	e1a00005 	mov	r0, r5
   11ac0:	ebffff52 	bl	11810 <strlen@plt>
   11ac4:	e1a02005 	mov	r2, r5
   11ac8:	e1a01004 	mov	r1, r4
   11acc:	e1a03000 	mov	r3, r0
   11ad0:	e59f0894 	ldr	r0, [pc, #2196]	; 1236c <main+0x904>
   11ad4:	e08f0000 	add	r0, pc, r0
   11ad8:	ebffff73 	bl	118ac <printf@plt>
   11adc:	e59f088c 	ldr	r0, [pc, #2188]	; 12370 <main+0x908>
   11ae0:	e3e04000 	mvn	r4, #0
   11ae4:	e59f5888 	ldr	r5, [pc, #2184]	; 12374 <main+0x90c>
   11ae8:	e08f0000 	add	r0, pc, r0
   11aec:	ebffffa7 	bl	11990 <puts@plt>
   11af0:	e59f0880 	ldr	r0, [pc, #2176]	; 12378 <main+0x910>
   11af4:	e08f5005 	add	r5, pc, r5
   11af8:	e3a01002 	mov	r1, #2
   11afc:	e08f0000 	add	r0, pc, r0
   11b00:	e5854000 	str	r4, [r5]
   11b04:	ebfffecf 	bl	11648 <open@plt>
   11b08:	e3500000 	cmp	r0, #0
   11b0c:	e1a07000 	mov	r7, r0
   11b10:	e5850000 	str	r0, [r5]
   11b14:	aa000008 	bge	11b3c <main+0xd4>
   11b18:	e59f385c 	ldr	r3, [pc, #2140]	; 1237c <main+0x914>
   11b1c:	e59f085c 	ldr	r0, [pc, #2140]	; 12380 <main+0x918>
   11b20:	e7963003 	ldr	r3, [r6, r3]
   11b24:	e08f0000 	add	r0, pc, r0
   11b28:	e5931000 	ldr	r1, [r3]
   11b2c:	ebffffca 	bl	11a5c <fputs@plt>
   11b30:	e1a00004 	mov	r0, r4
   11b34:	e28dd01c 	add	sp, sp, #28
   11b38:	e8bd83f0 	pop	{r4, r5, r6, r7, r8, r9, pc}
   11b3c:	ebffff96 	bl	1199c <getpid@plt>
   11b40:	e3a01008 	mov	r1, #8
   11b44:	e59f4838 	ldr	r4, [pc, #2104]	; 12384 <main+0x91c>
   11b48:	e08f4004 	add	r4, pc, r4
   11b4c:	e1a02000 	mov	r2, r0
   11b50:	e1a00007 	mov	r0, r7
   11b54:	ebffff9c 	bl	119cc <fcntl@plt>
   11b58:	e3a01003 	mov	r1, #3
   11b5c:	e5950000 	ldr	r0, [r5]
   11b60:	ebffff99 	bl	119cc <fcntl@plt>
   11b64:	e3a01004 	mov	r1, #4
   11b68:	e3802a02 	orr	r2, r0, #8192	; 0x2000
   11b6c:	e5950000 	ldr	r0, [r5]
   11b70:	ebffff95 	bl	119cc <fcntl@plt>
   11b74:	e3a02000 	mov	r2, #0
   11b78:	e3a01001 	mov	r1, #1
   11b7c:	e5950000 	ldr	r0, [r5]
   11b80:	ebffff91 	bl	119cc <fcntl@plt>
   11b84:	e3a01002 	mov	r1, #2
   11b88:	e3802001 	orr	r2, r0, #1
   11b8c:	e5950000 	ldr	r0, [r5]
   11b90:	ebffff8d 	bl	119cc <fcntl@plt>
   11b94:	e59f07ec 	ldr	r0, [pc, #2028]	; 12388 <main+0x920>
   11b98:	e5951000 	ldr	r1, [r5]
   11b9c:	e08f0000 	add	r0, pc, r0
   11ba0:	ebffff41 	bl	118ac <printf@plt>
   11ba4:	e59f07e0 	ldr	r0, [pc, #2016]	; 1238c <main+0x924>
   11ba8:	e08f0000 	add	r0, pc, r0
   11bac:	ebffff77 	bl	11990 <puts@plt>
   11bb0:	e59f37d8 	ldr	r3, [pc, #2008]	; 12390 <main+0x928>
   11bb4:	e3a02058 	mov	r2, #88	; 0x58
   11bb8:	e3a01008 	mov	r1, #8
   11bbc:	e08f3003 	add	r3, pc, r3
   11bc0:	e58d3000 	str	r3, [sp]
   11bc4:	e59f37c8 	ldr	r3, [pc, #1992]	; 12394 <main+0x92c>
   11bc8:	e1a00004 	mov	r0, r4
   11bcc:	e08f3003 	add	r3, pc, r3
   11bd0:	e2833e7b 	add	r3, r3, #1968	; 0x7b0
   11bd4:	e283300c 	add	r3, r3, #12
   11bd8:	eb004198 	bl	22240 <os_mempool_init>
   11bdc:	e1a00004 	mov	r0, r4
   11be0:	eb00404d 	bl	21d1c <os_memblock_get>
   11be4:	e59f37ac 	ldr	r3, [pc, #1964]	; 12398 <main+0x930>
   11be8:	e08f3003 	add	r3, pc, r3
   11bec:	e3500000 	cmp	r0, #0
   11bf0:	e1a04000 	mov	r4, r0
   11bf4:	e5830000 	str	r0, [r3]
   11bf8:	0a00002f 	beq	11cbc <main+0x254>
   11bfc:	e1a05000 	mov	r5, r0
   11c00:	e3a07001 	mov	r7, #1
   11c04:	e4c5701c 	strb	r7, [r5], #28
   11c08:	e1a00005 	mov	r0, r5
   11c0c:	ebffff7a 	bl	119fc <pthread_mutexattr_init@plt>
   11c10:	e1a01007 	mov	r1, r7
   11c14:	e1a00005 	mov	r0, r5
   11c18:	ebfffea8 	bl	116c0 <pthread_mutexattr_settype@plt>
   11c1c:	e1a01005 	mov	r1, r5
   11c20:	e2840004 	add	r0, r4, #4
   11c24:	ebffff26 	bl	118c4 <pthread_mutex_init@plt>
   11c28:	e3a01000 	mov	r1, #0
   11c2c:	e2840020 	add	r0, r4, #32
   11c30:	ebffff68 	bl	119d8 <pthread_cond_init@plt>
   11c34:	e1a03004 	mov	r3, r4
   11c38:	e3a02000 	mov	r2, #0
   11c3c:	e5a32050 	str	r2, [r3, #80]!	; 0x50
   11c40:	e5843054 	str	r3, [r4, #84]	; 0x54
   11c44:	e59f3750 	ldr	r3, [pc, #1872]	; 1239c <main+0x934>
   11c48:	e3a01000 	mov	r1, #0
   11c4c:	e59f474c 	ldr	r4, [pc, #1868]	; 123a0 <main+0x938>
   11c50:	e08f3003 	add	r3, pc, r3
   11c54:	e59f0748 	ldr	r0, [pc, #1864]	; 123a4 <main+0x93c>
   11c58:	e08f4004 	add	r4, pc, r4
   11c5c:	e59f5744 	ldr	r5, [pc, #1860]	; 123a8 <main+0x940>
   11c60:	e1a02003 	mov	r2, r3
   11c64:	e08f0000 	add	r0, pc, r0
   11c68:	e5a21030 	str	r1, [r2, #48]!	; 0x30
   11c6c:	e08f5005 	add	r5, pc, r5
   11c70:	e8840012 	stm	r4, {r1, r4}
   11c74:	e3a0100c 	mov	r1, #12
   11c78:	e5832034 	str	r2, [r3, #52]	; 0x34
   11c7c:	ebffff0a 	bl	118ac <printf@plt>
   11c80:	e3a00edb 	mov	r0, #3504	; 0xdb0
   11c84:	ebffff23 	bl	11918 <malloc@plt>
   11c88:	e3500000 	cmp	r0, #0
   11c8c:	e1a03000 	mov	r3, r0
   11c90:	e5850014 	str	r0, [r5, #20]
   11c94:	1a00000c 	bne	11ccc <main+0x264>
   11c98:	e59f370c 	ldr	r3, [pc, #1804]	; 123ac <main+0x944>
   11c9c:	e3a0208c 	mov	r2, #140	; 0x8c
   11ca0:	e59f1708 	ldr	r1, [pc, #1800]	; 123b0 <main+0x948>
   11ca4:	e59f0708 	ldr	r0, [pc, #1800]	; 123b4 <main+0x94c>
   11ca8:	e08f3003 	add	r3, pc, r3
   11cac:	e2833f6f 	add	r3, r3, #444	; 0x1bc
   11cb0:	e08f1001 	add	r1, pc, r1
   11cb4:	e08f0000 	add	r0, pc, r0
   11cb8:	ebfffead 	bl	11774 <__assert_fail@plt>
   11cbc:	e59f06f4 	ldr	r0, [pc, #1780]	; 123b8 <main+0x950>
   11cc0:	e08f0000 	add	r0, pc, r0
   11cc4:	ebffff31 	bl	11990 <puts@plt>
   11cc8:	eaffffdd 	b	11c44 <main+0x1dc>
   11ccc:	e2857ea7 	add	r7, r5, #2672	; 0xa70
   11cd0:	e59f26e4 	ldr	r2, [pc, #1764]	; 123bc <main+0x954>
   11cd4:	e287700c 	add	r7, r7, #12
   11cd8:	e3a0100c 	mov	r1, #12
   11cdc:	e08f2002 	add	r2, pc, r2
   11ce0:	e58d2000 	str	r2, [sp]
   11ce4:	e1a00007 	mov	r0, r7
   11ce8:	e3a02f49 	mov	r2, #292	; 0x124
   11cec:	eb004153 	bl	22240 <os_mempool_init>
   11cf0:	e3500000 	cmp	r0, #0
   11cf4:	1a000012 	bne	11d44 <main+0x2dc>
   11cf8:	e3003a98 	movw	r3, #2712	; 0xa98
   11cfc:	e3a02f45 	mov	r2, #276	; 0x114
   11d00:	e18520b3 	strh	r2, [r5, r3]
   11d04:	e5943000 	ldr	r3, [r4]
   11d08:	e5857a9c 	str	r7, [r5, #2716]	; 0xa9c
   11d0c:	e3530000 	cmp	r3, #0
   11d10:	1a000015 	bne	11d6c <main+0x304>
   11d14:	e59f16a4 	ldr	r1, [pc, #1700]	; 123c0 <main+0x958>
   11d18:	e59f26a4 	ldr	r2, [pc, #1700]	; 123c4 <main+0x95c>
   11d1c:	e08f1001 	add	r1, pc, r1
   11d20:	e08f2002 	add	r2, pc, r2
   11d24:	e5910004 	ldr	r0, [r1, #4]
   11d28:	e5823aa0 	str	r3, [r2, #2720]	; 0xaa0
   11d2c:	e2823ea9 	add	r3, r2, #2704	; 0xa90
   11d30:	e2833008 	add	r3, r3, #8
   11d34:	e2822eaa 	add	r2, r2, #2720	; 0xaa0
   11d38:	e5803000 	str	r3, [r0]
   11d3c:	e5812004 	str	r2, [r1, #4]
   11d40:	ea00016a 	b	122f0 <main+0x888>
   11d44:	e59f367c 	ldr	r3, [pc, #1660]	; 123c8 <main+0x960>
   11d48:	e3a02073 	mov	r2, #115	; 0x73
   11d4c:	e59f1678 	ldr	r1, [pc, #1656]	; 123cc <main+0x964>
   11d50:	e08f3003 	add	r3, pc, r3
   11d54:	e59f0674 	ldr	r0, [pc, #1652]	; 123d0 <main+0x968>
   11d58:	e2833f72 	add	r3, r3, #456	; 0x1c8
   11d5c:	e08f1001 	add	r1, pc, r1
   11d60:	e2833001 	add	r3, r3, #1
   11d64:	e08f0000 	add	r0, pc, r0
   11d68:	eaffffd2 	b	11cb8 <main+0x250>
   11d6c:	e1d320b0 	ldrh	r2, [r3]
   11d70:	e5931008 	ldr	r1, [r3, #8]
   11d74:	e3520f45 	cmp	r2, #276	; 0x114
   11d78:	3a00014e 	bcc	122b8 <main+0x850>
   11d7c:	e1a03001 	mov	r3, r1
   11d80:	eaffffe1 	b	11d0c <main+0x2a4>
   11d84:	e59f3648 	ldr	r3, [pc, #1608]	; 123d4 <main+0x96c>
   11d88:	e3a02024 	mov	r2, #36	; 0x24
   11d8c:	e3a01040 	mov	r1, #64	; 0x40
   11d90:	e2840070 	add	r0, r4, #112	; 0x70
   11d94:	e08f3003 	add	r3, pc, r3
   11d98:	e58d3000 	str	r3, [sp]
   11d9c:	e2843ef2 	add	r3, r4, #3872	; 0xf20
   11da0:	e2833008 	add	r3, r3, #8
   11da4:	eb004125 	bl	22240 <os_mempool_init>
   11da8:	e3500000 	cmp	r0, #0
   11dac:	0a000009 	beq	11dd8 <main+0x370>
   11db0:	e59f3620 	ldr	r3, [pc, #1568]	; 123d8 <main+0x970>
   11db4:	e3002a74 	movw	r2, #2676	; 0xa74
   11db8:	e59f161c 	ldr	r1, [pc, #1564]	; 123dc <main+0x974>
   11dbc:	e08f3003 	add	r3, pc, r3
   11dc0:	e59f0618 	ldr	r0, [pc, #1560]	; 123e0 <main+0x978>
   11dc4:	e2833f76 	add	r3, r3, #472	; 0x1d8
   11dc8:	e08f1001 	add	r1, pc, r1
   11dcc:	e2833003 	add	r3, r3, #3
   11dd0:	e08f0000 	add	r0, pc, r0
   11dd4:	eaffffb7 	b	11cb8 <main+0x250>
   11dd8:	e59f5604 	ldr	r5, [pc, #1540]	; 123e4 <main+0x97c>
   11ddc:	e3a0201c 	mov	r2, #28
   11de0:	e59f3600 	ldr	r3, [pc, #1536]	; 123e8 <main+0x980>
   11de4:	e3a01040 	mov	r1, #64	; 0x40
   11de8:	e08f5005 	add	r5, pc, r5
   11dec:	e2840054 	add	r0, r4, #84	; 0x54
   11df0:	e08f3003 	add	r3, pc, r3
   11df4:	e58d3000 	str	r3, [sp]
   11df8:	e2453e7d 	sub	r3, r5, #2000	; 0x7d0
   11dfc:	eb00410f 	bl	22240 <os_mempool_init>
   11e00:	e3500000 	cmp	r0, #0
   11e04:	0a000009 	beq	11e30 <main+0x3c8>
   11e08:	e59f35dc 	ldr	r3, [pc, #1500]	; 123ec <main+0x984>
   11e0c:	e3002a79 	movw	r2, #2681	; 0xa79
   11e10:	e59f15d8 	ldr	r1, [pc, #1496]	; 123f0 <main+0x988>
   11e14:	e08f3003 	add	r3, pc, r3
   11e18:	e59f05d4 	ldr	r0, [pc, #1492]	; 123f4 <main+0x98c>
   11e1c:	e2833f76 	add	r3, r3, #472	; 0x1d8
   11e20:	e08f1001 	add	r1, pc, r1
   11e24:	e2833003 	add	r3, r3, #3
   11e28:	e08f0000 	add	r0, pc, r0
   11e2c:	eaffffa1 	b	11cb8 <main+0x250>
   11e30:	e2857e53 	add	r7, r5, #1328	; 0x530
   11e34:	e59f35bc 	ldr	r3, [pc, #1468]	; 123f8 <main+0x990>
   11e38:	e3a02c01 	mov	r2, #256	; 0x100
   11e3c:	e3a01006 	mov	r1, #6
   11e40:	e08f3003 	add	r3, pc, r3
   11e44:	e1a00007 	mov	r0, r7
   11e48:	e58d3000 	str	r3, [sp]
   11e4c:	e24530d0 	sub	r3, r5, #208	; 0xd0
   11e50:	eb0040fa 	bl	22240 <os_mempool_init>
   11e54:	e3500000 	cmp	r0, #0
   11e58:	0a000009 	beq	11e84 <main+0x41c>
   11e5c:	e59f3598 	ldr	r3, [pc, #1432]	; 123fc <main+0x994>
   11e60:	e3a02d2a 	mov	r2, #2688	; 0xa80
   11e64:	e59f1594 	ldr	r1, [pc, #1428]	; 12400 <main+0x998>
   11e68:	e08f3003 	add	r3, pc, r3
   11e6c:	e59f0590 	ldr	r0, [pc, #1424]	; 12404 <main+0x99c>
   11e70:	e2833f76 	add	r3, r3, #472	; 0x1d8
   11e74:	e08f1001 	add	r1, pc, r1
   11e78:	e2833003 	add	r3, r3, #3
   11e7c:	e08f0000 	add	r0, pc, r0
   11e80:	eaffff8c 	b	11cb8 <main+0x250>
   11e84:	e59f357c 	ldr	r3, [pc, #1404]	; 12408 <main+0x9a0>
   11e88:	e3a020f0 	mov	r2, #240	; 0xf0
   11e8c:	e59f0578 	ldr	r0, [pc, #1400]	; 1240c <main+0x9a4>
   11e90:	e3a01002 	mov	r1, #2
   11e94:	e08f3003 	add	r3, pc, r3
   11e98:	e08f0000 	add	r0, pc, r0
   11e9c:	e1c320b0 	strh	r2, [r3]
   11ea0:	e3a0200c 	mov	r2, #12
   11ea4:	e5837004 	str	r7, [r3, #4]
   11ea8:	e59f3560 	ldr	r3, [pc, #1376]	; 12410 <main+0x9a8>
   11eac:	e08f3003 	add	r3, pc, r3
   11eb0:	e58d3000 	str	r3, [sp]
   11eb4:	e2853d15 	add	r3, r5, #1344	; 0x540
   11eb8:	e283300c 	add	r3, r3, #12
   11ebc:	eb0040df 	bl	22240 <os_mempool_init>
   11ec0:	e3500000 	cmp	r0, #0
   11ec4:	0a000009 	beq	11ef0 <main+0x488>
   11ec8:	e59f3544 	ldr	r3, [pc, #1348]	; 12414 <main+0x9ac>
   11ecc:	e3002a8a 	movw	r2, #2698	; 0xa8a
   11ed0:	e59f1540 	ldr	r1, [pc, #1344]	; 12418 <main+0x9b0>
   11ed4:	e08f3003 	add	r3, pc, r3
   11ed8:	e59f053c 	ldr	r0, [pc, #1340]	; 1241c <main+0x9b4>
   11edc:	e2833f76 	add	r3, r3, #472	; 0x1d8
   11ee0:	e08f1001 	add	r1, pc, r1
   11ee4:	e2833003 	add	r3, r3, #3
   11ee8:	e08f0000 	add	r0, pc, r0
   11eec:	eaffff71 	b	11cb8 <main+0x250>
   11ef0:	e59f3528 	ldr	r3, [pc, #1320]	; 12420 <main+0x9b8>
   11ef4:	e59f2528 	ldr	r2, [pc, #1320]	; 12424 <main+0x9bc>
   11ef8:	e08f3003 	add	r3, pc, r3
   11efc:	e59f1524 	ldr	r1, [pc, #1316]	; 12428 <main+0x9c0>
   11f00:	e08f2002 	add	r2, pc, r2
   11f04:	e59f0520 	ldr	r0, [pc, #1312]	; 1242c <main+0x9c4>
   11f08:	e583200c 	str	r2, [r3, #12]
   11f0c:	e08f1001 	add	r1, pc, r1
   11f10:	e59f2518 	ldr	r2, [pc, #1304]	; 12430 <main+0x9c8>
   11f14:	e08f0000 	add	r0, pc, r0
   11f18:	e08f2002 	add	r2, pc, r2
   11f1c:	e5832010 	str	r2, [r3, #16]
   11f20:	e59f250c 	ldr	r2, [pc, #1292]	; 12434 <main+0x9cc>
   11f24:	e08f2002 	add	r2, pc, r2
   11f28:	e5832000 	str	r2, [r3]
   11f2c:	e59f2504 	ldr	r2, [pc, #1284]	; 12438 <main+0x9d0>
   11f30:	e08f2002 	add	r2, pc, r2
   11f34:	e5832024 	str	r2, [r3, #36]	; 0x24
   11f38:	e59f24fc 	ldr	r2, [pc, #1276]	; 1243c <main+0x9d4>
   11f3c:	e08f2002 	add	r2, pc, r2
   11f40:	eb002947 	bl	1c464 <ble_npl_callout_init.constprop.130>
   11f44:	e3a03001 	mov	r3, #1
   11f48:	e5843aa4 	str	r3, [r4, #2724]	; 0xaa4
   11f4c:	e59f04ec 	ldr	r0, [pc, #1260]	; 12440 <main+0x9d8>
   11f50:	e3a01001 	mov	r1, #1
   11f54:	e59f54e8 	ldr	r5, [pc, #1256]	; 12444 <main+0x9dc>
   11f58:	e3a04000 	mov	r4, #0
   11f5c:	e08f0000 	add	r0, pc, r0
   11f60:	e59f74e0 	ldr	r7, [pc, #1248]	; 12448 <main+0x9e0>
   11f64:	e2800038 	add	r0, r0, #56	; 0x38
   11f68:	e08f5005 	add	r5, pc, r5
   11f6c:	eb00366f 	bl	1f930 <cli_add_cmds>
   11f70:	e59f04d4 	ldr	r0, [pc, #1236]	; 1244c <main+0x9e4>
   11f74:	e1a01004 	mov	r1, r4
   11f78:	e3a02001 	mov	r2, #1
   11f7c:	e08f0000 	add	r0, pc, r0
   11f80:	e5854048 	str	r4, [r5, #72]	; 0x48
   11f84:	eb0087ff 	bl	33f88 <atbm_createThread>
   11f88:	e08f7007 	add	r7, pc, r7
   11f8c:	e1a01004 	mov	r1, r4
   11f90:	e3a02004 	mov	r2, #4
   11f94:	e5874568 	str	r4, [r7, #1384]	; 0x568
   11f98:	e2858030 	add	r8, r5, #48	; 0x30
   11f9c:	e59f94ac 	ldr	r9, [pc, #1196]	; 12450 <main+0x9e8>
   11fa0:	e08f9009 	add	r9, pc, r9
   11fa4:	e5870564 	str	r0, [r7, #1380]	; 0x564
   11fa8:	e59f04a4 	ldr	r0, [pc, #1188]	; 12454 <main+0x9ec>
   11fac:	e08f0000 	add	r0, pc, r0
   11fb0:	eb0087f4 	bl	33f88 <atbm_createThread>
   11fb4:	e587056c 	str	r0, [r7, #1388]	; 0x56c
   11fb8:	eb003a51 	bl	20904 <atcmd_init_ble>
   11fbc:	e1a01004 	mov	r1, r4
   11fc0:	e3a02001 	mov	r2, #1
   11fc4:	e2870e57 	add	r0, r7, #1392	; 0x570
   11fc8:	ebfffddd 	bl	11744 <sem_init@plt>
   11fcc:	e1a02004 	mov	r2, r4
   11fd0:	e1a01004 	mov	r1, r4
   11fd4:	e1a00008 	mov	r0, r8
   11fd8:	ebfffdd9 	bl	11744 <sem_init@plt>
   11fdc:	e1a02004 	mov	r2, r4
   11fe0:	e1a01004 	mov	r1, r4
   11fe4:	e285001c 	add	r0, r5, #28
   11fe8:	ebfffdd5 	bl	11744 <sem_init@plt>
   11fec:	e59f2464 	ldr	r2, [pc, #1124]	; 12458 <main+0x9f0>
   11ff0:	e1a03004 	mov	r3, r4
   11ff4:	e1a01004 	mov	r1, r4
   11ff8:	e08f2002 	add	r2, pc, r2
   11ffc:	e2870d16 	add	r0, r7, #1408	; 0x580
   12000:	e5c54040 	strb	r4, [r5, #64]	; 0x40
   12004:	ebfffe0d 	bl	11840 <pthread_create@plt>
   12008:	e59f144c 	ldr	r1, [pc, #1100]	; 1245c <main+0x9f4>
   1200c:	e3a0001d 	mov	r0, #29
   12010:	e08f1001 	add	r1, pc, r1
   12014:	ebfffd9d 	bl	11690 <signal@plt>
   12018:	e59f3440 	ldr	r3, [pc, #1088]	; 12460 <main+0x9f8>
   1201c:	e2872d16 	add	r2, r7, #1408	; 0x580
   12020:	e59f143c 	ldr	r1, [pc, #1084]	; 12464 <main+0x9fc>
   12024:	e2822004 	add	r2, r2, #4
   12028:	e28d7008 	add	r7, sp, #8
   1202c:	e79f0003 	ldr	r0, [pc, r3]
   12030:	ebfffded 	bl	117ec <ioctl@plt>
   12034:	e59f042c 	ldr	r0, [pc, #1068]	; 12468 <main+0xa00>
   12038:	e08f0000 	add	r0, pc, r0
   1203c:	ebfffe53 	bl	11990 <puts@plt>
   12040:	e59f1424 	ldr	r1, [pc, #1060]	; 1246c <main+0xa04>
   12044:	e59f0424 	ldr	r0, [pc, #1060]	; 12470 <main+0xa08>
   12048:	e08f1001 	add	r1, pc, r1
   1204c:	e08f0000 	add	r0, pc, r0
   12050:	eb008b02 	bl	34c60 <ble_npl_eventq_put>
   12054:	e59f0418 	ldr	r0, [pc, #1048]	; 12474 <main+0xa0c>
   12058:	e08f0000 	add	r0, pc, r0
   1205c:	ebfffe4b 	bl	11990 <puts@plt>
   12060:	e59f0410 	ldr	r0, [pc, #1040]	; 12478 <main+0xa10>
   12064:	e08f0000 	add	r0, pc, r0
   12068:	ebfffe48 	bl	11990 <puts@plt>
   1206c:	e59f2408 	ldr	r2, [pc, #1032]	; 1247c <main+0xa14>
   12070:	e1a03004 	mov	r3, r4
   12074:	e1a01004 	mov	r1, r4
   12078:	e08f2002 	add	r2, pc, r2
   1207c:	e1a00007 	mov	r0, r7
   12080:	ebfffdee 	bl	11840 <pthread_create@plt>
   12084:	e1a04008 	mov	r4, r8
   12088:	e5d53040 	ldrb	r3, [r5, #64]	; 0x40
   1208c:	e3530000 	cmp	r3, #0
   12090:	1a000010 	bne	120d8 <main+0x670>
   12094:	e59f83e4 	ldr	r8, [pc, #996]	; 12480 <main+0xa18>
   12098:	e1a00004 	mov	r0, r4
   1209c:	ebfffe59 	bl	11a08 <sem_wait@plt>
   120a0:	e1a01009 	mov	r1, r9
   120a4:	e08f8008 	add	r8, pc, r8
   120a8:	e1a00008 	mov	r0, r8
   120ac:	ebfffe58 	bl	11a14 <strcmp@plt>
   120b0:	e3500000 	cmp	r0, #0
   120b4:	1a000078 	bne	1229c <main+0x834>
   120b8:	e59f33c4 	ldr	r3, [pc, #964]	; 12484 <main+0xa1c>
   120bc:	e2444030 	sub	r4, r4, #48	; 0x30
   120c0:	e3a02001 	mov	r2, #1
   120c4:	e08f3003 	add	r3, pc, r3
   120c8:	e5c32984 	strb	r2, [r3, #2436]	; 0x984
   120cc:	e5d43040 	ldrb	r3, [r4, #64]	; 0x40
   120d0:	e3530000 	cmp	r3, #0
   120d4:	0a00006d 	beq	12290 <main+0x828>
   120d8:	e59f83a8 	ldr	r8, [pc, #936]	; 12488 <main+0xa20>
   120dc:	e59f43a8 	ldr	r4, [pc, #936]	; 1248c <main+0xa24>
   120e0:	e08f8008 	add	r8, pc, r8
   120e4:	e288501c 	add	r5, r8, #28
   120e8:	e08f4004 	add	r4, pc, r4
   120ec:	e1a00005 	mov	r0, r5
   120f0:	ebfffde4 	bl	11888 <sem_post@plt>
   120f4:	e5940580 	ldr	r0, [r4, #1408]	; 0x580
   120f8:	ebfffe4e 	bl	11a38 <pthread_cancel@plt>
   120fc:	e3a01000 	mov	r1, #0
   12100:	e5940580 	ldr	r0, [r4, #1408]	; 0x580
   12104:	ebfffe51 	bl	11a50 <pthread_join@plt>
   12108:	e59d0008 	ldr	r0, [sp, #8]
   1210c:	ebfffe49 	bl	11a38 <pthread_cancel@plt>
   12110:	e3a01000 	mov	r1, #0
   12114:	e59d0008 	ldr	r0, [sp, #8]
   12118:	ebfffe4c 	bl	11a50 <pthread_join@plt>
   1211c:	e2840e57 	add	r0, r4, #1392	; 0x570
   12120:	e59f4368 	ldr	r4, [pc, #872]	; 12490 <main+0xa28>
   12124:	ebfffd8c 	bl	1175c <sem_destroy@plt>
   12128:	e2880030 	add	r0, r8, #48	; 0x30
   1212c:	e08f4004 	add	r4, pc, r4
   12130:	ebfffd89 	bl	1175c <sem_destroy@plt>
   12134:	e1a00005 	mov	r0, r5
   12138:	ebfffd87 	bl	1175c <sem_destroy@plt>
   1213c:	e5940000 	ldr	r0, [r4]
   12140:	e3500000 	cmp	r0, #0
   12144:	da000002 	ble	12154 <main+0x6ec>
   12148:	ebfffde6 	bl	118e8 <close@plt>
   1214c:	e3e03000 	mvn	r3, #0
   12150:	e5843000 	str	r3, [r4]
   12154:	e59f3220 	ldr	r3, [pc, #544]	; 1237c <main+0x914>
   12158:	e59f0334 	ldr	r0, [pc, #820]	; 12494 <main+0xa2c>
   1215c:	e7963003 	ldr	r3, [r6, r3]
   12160:	e08f0000 	add	r0, pc, r0
   12164:	e5931000 	ldr	r1, [r3]
   12168:	ebfffe3b 	bl	11a5c <fputs@plt>
   1216c:	e59f0324 	ldr	r0, [pc, #804]	; 12498 <main+0xa30>
   12170:	e08f0000 	add	r0, pc, r0
   12174:	ebfffe05 	bl	11990 <puts@plt>
   12178:	e59f331c 	ldr	r3, [pc, #796]	; 1249c <main+0xa34>
   1217c:	e08f3003 	add	r3, pc, r3
   12180:	e593256c 	ldr	r2, [r3, #1388]	; 0x56c
   12184:	e3520000 	cmp	r2, #0
   12188:	0a000004 	beq	121a0 <main+0x738>
   1218c:	e59f030c 	ldr	r0, [pc, #780]	; 124a0 <main+0xa38>
   12190:	e3a02001 	mov	r2, #1
   12194:	e5832568 	str	r2, [r3, #1384]	; 0x568
   12198:	e08f0000 	add	r0, pc, r0
   1219c:	eb008a89 	bl	34bc8 <ble_npl_sem_release>
   121a0:	e59f52fc 	ldr	r5, [pc, #764]	; 124a4 <main+0xa3c>
   121a4:	e08f5005 	add	r5, pc, r5
   121a8:	e5954000 	ldr	r4, [r5]
   121ac:	e3540000 	cmp	r4, #0
   121b0:	1a00003d 	bne	122ac <main+0x844>
   121b4:	e59f52ec 	ldr	r5, [pc, #748]	; 124a8 <main+0xa40>
   121b8:	e59f62ec 	ldr	r6, [pc, #748]	; 124ac <main+0xa44>
   121bc:	e08f5005 	add	r5, pc, r5
   121c0:	e08f6006 	add	r6, pc, r6
   121c4:	e595056c 	ldr	r0, [r5, #1388]	; 0x56c
   121c8:	eb008702 	bl	33dd8 <atbm_stopThread>
   121cc:	e59f02dc 	ldr	r0, [pc, #732]	; 124b0 <main+0xa48>
   121d0:	e585456c 	str	r4, [r5, #1388]	; 0x56c
   121d4:	e1a05004 	mov	r5, r4
   121d8:	e08f0000 	add	r0, pc, r0
   121dc:	eb008a7f 	bl	34be0 <ble_npl_sem_free>
   121e0:	e4960004 	ldr	r0, [r6], #4
   121e4:	e2855001 	add	r5, r5, #1
   121e8:	ebfffd6a 	bl	11798 <free@plt>
   121ec:	e3550004 	cmp	r5, #4
   121f0:	1afffffa 	bne	121e0 <main+0x778>
   121f4:	e59f52b8 	ldr	r5, [pc, #696]	; 124b4 <main+0xa4c>
   121f8:	f2c00050 	vmov.i32	q8, #0	; 0x00000000
   121fc:	e08f5005 	add	r5, pc, r5
   12200:	f4470a1f 	vst1.8	{d16-d17}, [r7 :64]
   12204:	e5953564 	ldr	r3, [r5, #1380]	; 0x564
   12208:	e3530000 	cmp	r3, #0
   1220c:	0a00000b 	beq	12240 <main+0x7d8>
   12210:	e59f32a0 	ldr	r3, [pc, #672]	; 124b8 <main+0xa50>
   12214:	e1a01007 	mov	r1, r7
   12218:	e59f029c 	ldr	r0, [pc, #668]	; 124bc <main+0xa54>
   1221c:	e3a02001 	mov	r2, #1
   12220:	e08f3003 	add	r3, pc, r3
   12224:	e08f0000 	add	r0, pc, r0
   12228:	e5832048 	str	r2, [r3, #72]	; 0x48
   1222c:	eb008a8b 	bl	34c60 <ble_npl_eventq_put>
   12230:	e5950564 	ldr	r0, [r5, #1380]	; 0x564
   12234:	eb0086e7 	bl	33dd8 <atbm_stopThread>
   12238:	e3a03000 	mov	r3, #0
   1223c:	e5853564 	str	r3, [r5, #1380]	; 0x564
   12240:	e59f5278 	ldr	r5, [pc, #632]	; 124c0 <main+0xa58>
   12244:	eb00382b 	bl	202f8 <os_msys_deinit>
   12248:	eb00382f 	bl	2030c <ble_hci_ram_deinit>
   1224c:	e08f5005 	add	r5, pc, r5
   12250:	eb00289a 	bl	1c4c0 <ble_npl_eventq_release.constprop.126>
   12254:	e2850d26 	add	r0, r5, #2432	; 0x980
   12258:	e2800008 	add	r0, r0, #8
   1225c:	eb008a65 	bl	34bf8 <ble_npl_mutex_free>
   12260:	e2850e9a 	add	r0, r5, #2464	; 0x9a0
   12264:	e280000c 	add	r0, r0, #12
   12268:	eb008a5c 	bl	34be0 <ble_npl_sem_free>
   1226c:	e2850d27 	add	r0, r5, #2496	; 0x9c0
   12270:	eb008a60 	bl	34bf8 <ble_npl_mutex_free>
   12274:	eb002875 	bl	1c450 <ble_npl_callout_free.constprop.131>
   12278:	e2850e9e 	add	r0, r5, #2528	; 0x9e0
   1227c:	e2800004 	add	r0, r0, #4
   12280:	eb008a5c 	bl	34bf8 <ble_npl_mutex_free>
   12284:	eb006a8e 	bl	2ccc4 <ble_gatts_reset>
   12288:	eb008b4f 	bl	34fcc <ble_smart_cfg_exit>
   1228c:	eafffe27 	b	11b30 <main+0xc8>
   12290:	e3a00064 	mov	r0, #100	; 0x64
   12294:	ebfffd39 	bl	11780 <usleep@plt>
   12298:	eaffff8b 	b	120cc <main+0x664>
   1229c:	e1a00008 	mov	r0, r8
   122a0:	ebfffd5a 	bl	11810 <strlen@plt>
   122a4:	eb002ed8 	bl	1de0c <cli_set_event.constprop.24>
   122a8:	eaffff76 	b	12088 <main+0x620>
   122ac:	e3a0000a 	mov	r0, #10
   122b0:	eb008697 	bl	33d14 <ble_npl_time_delay>
   122b4:	eaffffbb 	b	121a8 <main+0x740>
   122b8:	e59f2204 	ldr	r2, [pc, #516]	; 124c4 <main+0xa5c>
   122bc:	e3510000 	cmp	r1, #0
   122c0:	e08f2002 	add	r2, pc, r2
   122c4:	e5821aa0 	str	r1, [r2, #2720]	; 0xaa0
   122c8:	1a000003 	bne	122dc <main+0x874>
   122cc:	e59f11f4 	ldr	r1, [pc, #500]	; 124c8 <main+0xa60>
   122d0:	e2822eaa 	add	r2, r2, #2720	; 0xaa0
   122d4:	e08f1001 	add	r1, pc, r1
   122d8:	e5812004 	str	r2, [r1, #4]
   122dc:	e59f21e8 	ldr	r2, [pc, #488]	; 124cc <main+0xa64>
   122e0:	e08f2002 	add	r2, pc, r2
   122e4:	e2822ea9 	add	r2, r2, #2704	; 0xa90
   122e8:	e2822008 	add	r2, r2, #8
   122ec:	e5832008 	str	r2, [r3, #8]
   122f0:	e59f41d8 	ldr	r4, [pc, #472]	; 124d0 <main+0xa68>
   122f4:	eb0035a4 	bl	1f98c <ble_store_ram_init>
   122f8:	eb004008 	bl	22320 <ble_hci_ram_init>
   122fc:	e08f4004 	add	r4, pc, r4
   12300:	eb00650e 	bl	2b740 <ble_transport_hs_init>
   12304:	e5943aa4 	ldr	r3, [r4, #2724]	; 0xaa4
   12308:	e3530000 	cmp	r3, #0
   1230c:	1affff0e 	bne	11f4c <main+0x4e4>
   12310:	e59f31bc 	ldr	r3, [pc, #444]	; 124d4 <main+0xa6c>
   12314:	e3a02024 	mov	r2, #36	; 0x24
   12318:	e3a01020 	mov	r1, #32
   1231c:	e284008c 	add	r0, r4, #140	; 0x8c
   12320:	e08f3003 	add	r3, pc, r3
   12324:	e58d3000 	str	r3, [sp]
   12328:	e2843eaa 	add	r3, r4, #2720	; 0xaa0
   1232c:	e2833008 	add	r3, r3, #8
   12330:	eb003fc2 	bl	22240 <os_mempool_init>
   12334:	e3500000 	cmp	r0, #0
   12338:	0afffe91 	beq	11d84 <main+0x31c>
   1233c:	e59f3194 	ldr	r3, [pc, #404]	; 124d8 <main+0xa70>
   12340:	e3002a6f 	movw	r2, #2671	; 0xa6f
   12344:	e59f1190 	ldr	r1, [pc, #400]	; 124dc <main+0xa74>
   12348:	e08f3003 	add	r3, pc, r3
   1234c:	e59f018c 	ldr	r0, [pc, #396]	; 124e0 <main+0xa78>
   12350:	e2833f76 	add	r3, r3, #472	; 0x1d8
   12354:	e08f1001 	add	r1, pc, r1
   12358:	e2833003 	add	r3, r3, #3
   1235c:	e08f0000 	add	r0, pc, r0
   12360:	eafffe54 	b	11cb8 <main+0x250>
   12364:	0003d580 	.word	0x0003d580
   12368:	0003ed78 	.word	0x0003ed78
   1236c:	0002a126 	.word	0x0002a126
   12370:	0002a12e 	.word	0x0002a12e
   12374:	0003dbf4 	.word	0x0003dbf4
   12378:	0002a134 	.word	0x0002a134
   1237c:	00000170 	.word	0x00000170
   12380:	0002a11c 	.word	0x0002a11c
   12384:	0003e200 	.word	0x0003e200
   12388:	0002a0c0 	.word	0x0002a0c0
   1238c:	0002a0d1 	.word	0x0002a0d1
   12390:	0002a0d1 	.word	0x0002a0d1
   12394:	0003ec4c 	.word	0x0003ec4c
   12398:	0003e090 	.word	0x0003e090
   1239c:	0003da9c 	.word	0x0003da9c
   123a0:	0003d7b0 	.word	0x0003d7b0
   123a4:	0002a056 	.word	0x0002a056
   123a8:	0003ebac 	.word	0x0003ebac
   123ac:	00029754 	.word	0x00029754
   123b0:	0002a01f 	.word	0x0002a01f
   123b4:	0002a091 	.word	0x0002a091
   123b8:	00029fda 	.word	0x00029fda
   123bc:	0002a080 	.word	0x0002a080
   123c0:	0003d6ec 	.word	0x0003d6ec
   123c4:	0003eaf8 	.word	0x0003eaf8
   123c8:	000296ac 	.word	0x000296ac
   123cc:	00029f73 	.word	0x00029f73
   123d0:	00025a99 	.word	0x00025a99
   123d4:	00029fe0 	.word	0x00029fe0
   123d8:	00029640 	.word	0x00029640
   123dc:	000251fd 	.word	0x000251fd
   123e0:	00025a2d 	.word	0x00025a2d
   123e4:	00040a28 	.word	0x00040a28
   123e8:	00029f95 	.word	0x00029f95
   123ec:	000295e8 	.word	0x000295e8
   123f0:	000251a5 	.word	0x000251a5
   123f4:	000259d5 	.word	0x000259d5
   123f8:	00029f56 	.word	0x00029f56
   123fc:	00029594 	.word	0x00029594
   12400:	00025151 	.word	0x00025151
   12404:	00025981 	.word	0x00025981
   12408:	0003dd10 	.word	0x0003dd10
   1240c:	0003de48 	.word	0x0003de48
   12410:	00029eff 	.word	0x00029eff
   12414:	00029528 	.word	0x00029528
   12418:	000250e5 	.word	0x000250e5
   1241c:	00025915 	.word	0x00025915
   12420:	0003d27c 	.word	0x0003d27c
   12424:	00000e48 	.word	0x00000e48
   12428:	0003dd6c 	.word	0x0003dd6c
   1242c:	0003dd24 	.word	0x0003dd24
   12430:	0000b484 	.word	0x0000b484
   12434:	0000303c 	.word	0x0000303c
   12438:	00012928 	.word	0x00012928
   1243c:	00009408 	.word	0x00009408
   12440:	0003d790 	.word	0x0003d790
   12444:	0003e8b0 	.word	0x0003e8b0
   12448:	00040888 	.word	0x00040888
   1244c:	0000e844 	.word	0x0000e844
   12450:	00029976 	.word	0x00029976
   12454:	000116cc 	.word	0x000116cc
   12458:	0000e608 	.word	0x0000e608
   1245c:	0000e340 	.word	0x0000e340
   12460:	0003d6bc 	.word	0x0003d6bc
   12464:	40047900 	.word	0x40047900
   12468:	00029d89 	.word	0x00029d89
   1246c:	0003dc20 	.word	0x0003dc20
   12470:	0003dc2c 	.word	0x0003dc2c
   12474:	00029d7d 	.word	0x00029d7d
   12478:	00029d80 	.word	0x00029d80
   1247c:	0000e2ec 	.word	0x0000e2ec
   12480:	0003def4 	.word	0x0003def4
   12484:	0004074c 	.word	0x0004074c
   12488:	0003e738 	.word	0x0003e738
   1248c:	00040728 	.word	0x00040728
   12490:	0003d5bc 	.word	0x0003d5bc
   12494:	00029c95 	.word	0x00029c95
   12498:	00029c9b 	.word	0x00029c9b
   1249c:	00040694 	.word	0x00040694
   124a0:	0003e444 	.word	0x0003e444
   124a4:	0003e434 	.word	0x0003e434
   124a8:	00040654 	.word	0x00040654
   124ac:	0003ddbc 	.word	0x0003ddbc
   124b0:	0003e404 	.word	0x0003e404
   124b4:	00040614 	.word	0x00040614
   124b8:	0003e5f8 	.word	0x0003e5f8
   124bc:	0003da54 	.word	0x0003da54
   124c0:	000405c4 	.word	0x000405c4
   124c4:	0003e558 	.word	0x0003e558
   124c8:	0003d134 	.word	0x0003d134
   124cc:	0003e538 	.word	0x0003e538
   124d0:	0003e51c 	.word	0x0003e51c
   124d4:	00029a43 	.word	0x00029a43
   124d8:	000290b4 	.word	0x000290b4
   124dc:	00024c71 	.word	0x00024c71
   124e0:	000254a1 	.word	0x000254a1

000124e4 <_start>:
   124e4:	e3a0b000 	mov	fp, #0
   124e8:	e3a0e000 	mov	lr, #0
   124ec:	e49d1004 	pop	{r1}		; (ldr r1, [sp], #4)
   124f0:	e1a0200d 	mov	r2, sp
   124f4:	e52d2004 	push	{r2}		; (str r2, [sp, #-4]!)
   124f8:	e52d0004 	push	{r0}		; (str r0, [sp, #-4]!)
   124fc:	e59fc010 	ldr	ip, [pc, #16]	; 12514 <_start+0x30>
   12500:	e52dc004 	push	{ip}		; (str ip, [sp, #-4]!)
   12504:	e59f000c 	ldr	r0, [pc, #12]	; 12518 <_start+0x34>
   12508:	e59f300c 	ldr	r3, [pc, #12]	; 1251c <_start+0x38>
   1250c:	ebfffc5c 	bl	11684 <__libc_start_main@plt>
   12510:	ebfffc4f 	bl	11654 <abort@plt>
   12514:	00035c74 	.word	0x00035c74
   12518:	00011a68 	.word	0x00011a68
   1251c:	00035c10 	.word	0x00035c10

00012520 <call_weak_fn>:
   12520:	e59f3014 	ldr	r3, [pc, #20]	; 1253c <call_weak_fn+0x1c>
   12524:	e59f2014 	ldr	r2, [pc, #20]	; 12540 <call_weak_fn+0x20>
   12528:	e08f3003 	add	r3, pc, r3
   1252c:	e7932002 	ldr	r2, [r3, r2]
   12530:	e3520000 	cmp	r2, #0
   12534:	012fff1e 	bxeq	lr
   12538:	eafffc5a 	b	116a8 <__gmon_start__@plt>
   1253c:	0003cad0 	.word	0x0003cad0
   12540:	0000016c 	.word	0x0000016c

00012544 <deregister_tm_clones>:
   12544:	e30f08c8 	movw	r0, #63688	; 0xf8c8
   12548:	e3400004 	movt	r0, #4
   1254c:	e30f38c8 	movw	r3, #63688	; 0xf8c8
   12550:	e3403004 	movt	r3, #4
   12554:	e1530000 	cmp	r3, r0
   12558:	012fff1e 	bxeq	lr
   1255c:	e3003000 	movw	r3, #0
   12560:	e3403000 	movt	r3, #0
   12564:	e3530000 	cmp	r3, #0
   12568:	012fff1e 	bxeq	lr
   1256c:	e12fff13 	bx	r3

00012570 <register_tm_clones>:
   12570:	e30f08c8 	movw	r0, #63688	; 0xf8c8
   12574:	e3400004 	movt	r0, #4
   12578:	e30f18c8 	movw	r1, #63688	; 0xf8c8
   1257c:	e3401004 	movt	r1, #4
   12580:	e0411000 	sub	r1, r1, r0
   12584:	e1a01141 	asr	r1, r1, #2
   12588:	e0811fa1 	add	r1, r1, r1, lsr #31
   1258c:	e1b010c1 	asrs	r1, r1, #1
   12590:	012fff1e 	bxeq	lr
   12594:	e3003000 	movw	r3, #0
   12598:	e3403000 	movt	r3, #0
   1259c:	e3530000 	cmp	r3, #0
   125a0:	012fff1e 	bxeq	lr
   125a4:	e12fff13 	bx	r3

000125a8 <__do_global_dtors_aux>:
   125a8:	e92d4010 	push	{r4, lr}
   125ac:	e30f48c8 	movw	r4, #63688	; 0xf8c8
   125b0:	e3404004 	movt	r4, #4
   125b4:	e5d43000 	ldrb	r3, [r4]
   125b8:	e3530000 	cmp	r3, #0
   125bc:	18bd8010 	popne	{r4, pc}
   125c0:	ebffffdf 	bl	12544 <deregister_tm_clones>
   125c4:	e3a03001 	mov	r3, #1
   125c8:	e5c43000 	strb	r3, [r4]
   125cc:	e8bd8010 	pop	{r4, pc}

000125d0 <frame_dummy>:
   125d0:	eaffffe6 	b	12570 <register_tm_clones>

000125d4 <parse_reverse_bytes>:
   125d4:	e0803001 	add	r3, r0, r1
   125d8:	e08010c1 	add	r1, r0, r1, asr #1
   125dc:	e573c001 	ldrb	ip, [r3, #-1]!
   125e0:	e5d02000 	ldrb	r2, [r0]
   125e4:	e4c0c001 	strb	ip, [r0], #1
   125e8:	e1500001 	cmp	r0, r1
   125ec:	e5c32000 	strb	r2, [r3]
   125f0:	1afffff9 	bne	125dc <parse_reverse_bytes+0x8>
   125f4:	e12fff1e 	bx	lr

000125f8 <ble_hs_adv_set_hdr.constprop.148>:
   125f8:	e52de004 	push	{lr}		; (str lr, [sp, #-4]!)
   125fc:	e5d3e000 	ldrb	lr, [r3]
   12600:	e28ec002 	add	ip, lr, #2
   12604:	e08cc001 	add	ip, ip, r1
   12608:	e35c001f 	cmp	ip, #31
   1260c:	ca000009 	bgt	12638 <ble_hs_adv_set_hdr.constprop.148+0x40>
   12610:	e2811001 	add	r1, r1, #1
   12614:	e7c2100e 	strb	r1, [r2, lr]
   12618:	e5d31000 	ldrb	r1, [r3]
   1261c:	e0822001 	add	r2, r2, r1
   12620:	e5c20001 	strb	r0, [r2, #1]
   12624:	e3a00000 	mov	r0, #0
   12628:	e5d32000 	ldrb	r2, [r3]
   1262c:	e2822002 	add	r2, r2, #2
   12630:	e5c32000 	strb	r2, [r3]
   12634:	e49df004 	pop	{pc}		; (ldr pc, [sp], #4)
   12638:	e3a00004 	mov	r0, #4
   1263c:	e49df004 	pop	{pc}		; (ldr pc, [sp], #4)

00012640 <ble_hs_adv_set_flat_mbuf.constprop.147>:
   12640:	e92d47f0 	push	{r4, r5, r6, r7, r8, r9, sl, lr}
   12644:	e6ef5071 	uxtb	r5, r1
   12648:	e59d4020 	ldr	r4, [sp, #32]
   1264c:	e1a06003 	mov	r6, r3
   12650:	e1a07001 	mov	r7, r1
   12654:	e1a09002 	mov	r9, r2
   12658:	e1a01005 	mov	r1, r5
   1265c:	e1a02006 	mov	r2, r6
   12660:	e1a03004 	mov	r3, r4
   12664:	ebffffe3 	bl	125f8 <ble_hs_adv_set_hdr.constprop.148>
   12668:	e2508000 	subs	r8, r0, #0
   1266c:	1a000007 	bne	12690 <ble_hs_adv_set_flat_mbuf.constprop.147+0x50>
   12670:	e5d40000 	ldrb	r0, [r4]
   12674:	e1a02007 	mov	r2, r7
   12678:	e1a01009 	mov	r1, r9
   1267c:	e0860000 	add	r0, r6, r0
   12680:	ebfffc71 	bl	1184c <memcpy@plt>
   12684:	e5d43000 	ldrb	r3, [r4]
   12688:	e0855003 	add	r5, r5, r3
   1268c:	e5c45000 	strb	r5, [r4]
   12690:	e1a00008 	mov	r0, r8
   12694:	e8bd87f0 	pop	{r4, r5, r6, r7, r8, r9, sl, pc}

00012698 <cmd_l2cap_reconfig>:
   12698:	e59f0010 	ldr	r0, [pc, #16]	; 126b0 <cmd_l2cap_reconfig+0x18>
   1269c:	e92d4010 	push	{r4, lr}
   126a0:	e08f0000 	add	r0, pc, r0
   126a4:	ebfffcb9 	bl	11990 <puts@plt>
   126a8:	e3a0005f 	mov	r0, #95	; 0x5f
   126ac:	e8bd8010 	pop	{r4, pc}
   126b0:	00023c98 	.word	0x00023c98

000126b4 <ble_gattc_write.constprop.76>:
   126b4:	e92d41f3 	push	{r0, r1, r4, r5, r6, r7, r8, lr}
   126b8:	e1a05000 	mov	r5, r0
   126bc:	e1a07001 	mov	r7, r1
   126c0:	e1a06002 	mov	r6, r2
   126c4:	e1a08003 	mov	r8, r3
   126c8:	eb006c75 	bl	2d8a4 <ble_gattc_proc_alloc.lto_priv.204>
   126cc:	e2504000 	subs	r4, r0, #0
   126d0:	03a05006 	moveq	r5, #6
   126d4:	0a000010 	beq	1271c <ble_gattc_write.constprop.76+0x68>
   126d8:	e3a0300b 	mov	r3, #11
   126dc:	e1c450b8 	strh	r5, [r4, #8]
   126e0:	e5c4300a 	strb	r3, [r4, #10]
   126e4:	e28d2004 	add	r2, sp, #4
   126e8:	e3a03000 	mov	r3, #0
   126ec:	e1c470bc 	strh	r7, [r4, #12]
   126f0:	e5848010 	str	r8, [r4, #16]
   126f4:	e3a01002 	mov	r1, #2
   126f8:	e5843014 	str	r3, [r4, #20]
   126fc:	e3a00012 	mov	r0, #18
   12700:	eb007f11 	bl	3234c <ble_att_cmd_get>
   12704:	e3500000 	cmp	r0, #0
   12708:	1a00000b 	bne	1273c <ble_gattc_write.constprop.76+0x88>
   1270c:	e1a00006 	mov	r0, r6
   12710:	e3a05006 	mov	r5, #6
   12714:	eb00406b 	bl	228c8 <os_mbuf_free_chain>
   12718:	e3a06000 	mov	r6, #0
   1271c:	e1a00006 	mov	r0, r6
   12720:	eb004068 	bl	228c8 <os_mbuf_free_chain>
   12724:	e1a00004 	mov	r0, r4
   12728:	e1a01005 	mov	r1, r5
   1272c:	eb006b1c 	bl	2d3a4 <ble_gattc_process_status.lto_priv.205>
   12730:	e1a00005 	mov	r0, r5
   12734:	e28dd008 	add	sp, sp, #8
   12738:	e8bd81f0 	pop	{r4, r5, r6, r7, r8, pc}
   1273c:	e1c070b0 	strh	r7, [r0]
   12740:	e1a01006 	mov	r1, r6
   12744:	e59d0004 	ldr	r0, [sp, #4]
   12748:	eb003fc3 	bl	2265c <os_mbuf_concat>
   1274c:	e1a00005 	mov	r0, r5
   12750:	e59d1004 	ldr	r1, [sp, #4]
   12754:	eb007928 	bl	30bfc <ble_att_tx>
   12758:	e1a05000 	mov	r5, r0
   1275c:	eaffffed 	b	12718 <ble_gattc_write.constprop.76+0x64>

00012760 <gatt_svr_chr_write>:
   12760:	e92d4070 	push	{r4, r5, r6, lr}
   12764:	e1d051b0 	ldrh	r5, [r0, #16]
   12768:	e59d4010 	ldr	r4, [sp, #16]
   1276c:	e1550002 	cmp	r5, r2
   12770:	93a0c000 	movls	ip, #0
   12774:	83a0c001 	movhi	ip, #1
   12778:	e1550001 	cmp	r5, r1
   1277c:	21a0100c 	movcs	r1, ip
   12780:	338c1001 	orrcc	r1, ip, #1
   12784:	e3510000 	cmp	r1, #0
   12788:	1a00000e 	bne	127c8 <gatt_svr_chr_write+0x68>
   1278c:	e1550002 	cmp	r5, r2
   12790:	21a05002 	movcs	r5, r2
   12794:	e3550000 	cmp	r5, #0
   12798:	0a000006 	beq	127b8 <gatt_svr_chr_write+0x58>
   1279c:	e1a06002 	mov	r6, r2
   127a0:	e1a02005 	mov	r2, r5
   127a4:	eb003f87 	bl	225c8 <os_mbuf_copydata.part.6>
   127a8:	e3500000 	cmp	r0, #0
   127ac:	1a000009 	bne	127d8 <gatt_svr_chr_write+0x78>
   127b0:	e1550006 	cmp	r5, r6
   127b4:	8a000005 	bhi	127d0 <gatt_svr_chr_write+0x70>
   127b8:	e3540000 	cmp	r4, #0
   127bc:	e3a00000 	mov	r0, #0
   127c0:	11c450b0 	strhne	r5, [r4]
   127c4:	e8bd8070 	pop	{r4, r5, r6, pc}
   127c8:	e3a0000d 	mov	r0, #13
   127cc:	e8bd8070 	pop	{r4, r5, r6, pc}
   127d0:	e3540000 	cmp	r4, #0
   127d4:	11c450b0 	strhne	r5, [r4]
   127d8:	e3a0000e 	mov	r0, #14
   127dc:	e8bd8070 	pop	{r4, r5, r6, pc}

000127e0 <ble_gattc_disc_all_svcs.constprop.85>:
   127e0:	e92d4070 	push	{r4, r5, r6, lr}
   127e4:	e1a05000 	mov	r5, r0
   127e8:	eb006c2d 	bl	2d8a4 <ble_gattc_proc_alloc.lto_priv.204>
   127ec:	e2504000 	subs	r4, r0, #0
   127f0:	03a05006 	moveq	r5, #6
   127f4:	0a000009 	beq	12820 <ble_gattc_disc_all_svcs.constprop.85+0x40>
   127f8:	e59f2034 	ldr	r2, [pc, #52]	; 12834 <ble_gattc_disc_all_svcs.constprop.85+0x54>
   127fc:	e3a03001 	mov	r3, #1
   12800:	e1c450b8 	strh	r5, [r4, #8]
   12804:	e5c4300a 	strb	r3, [r4, #10]
   12808:	e08f2002 	add	r2, pc, r2
   1280c:	e3a03000 	mov	r3, #0
   12810:	e1c430bc 	strh	r3, [r4, #12]
   12814:	e1c421f0 	strd	r2, [r4, #16]
   12818:	eb008064 	bl	329b0 <ble_gattc_disc_all_svcs_tx.lto_priv.221>
   1281c:	e1a05000 	mov	r5, r0
   12820:	e1a00004 	mov	r0, r4
   12824:	e1a01005 	mov	r1, r5
   12828:	eb006add 	bl	2d3a4 <ble_gattc_process_status.lto_priv.205>
   1282c:	e1a00005 	mov	r0, r5
   12830:	e8bd8070 	pop	{r4, r5, r6, pc}
   12834:	0000f71c 	.word	0x0000f71c

00012838 <apply_z.constprop.42>:
   12838:	e92d41f0 	push	{r4, r5, r6, r7, r8, lr}
   1283c:	e24dd020 	sub	sp, sp, #32
   12840:	e59f5064 	ldr	r5, [pc, #100]	; 128ac <apply_z.constprop.42+0x74>
   12844:	e1a06002 	mov	r6, r2
   12848:	e1a0400d 	mov	r4, sp
   1284c:	e1a08000 	mov	r8, r0
   12850:	e08f5005 	add	r5, pc, r5
   12854:	e1a07001 	mov	r7, r1
   12858:	e1a00004 	mov	r0, r4
   1285c:	e1a01006 	mov	r1, r6
   12860:	e1a02005 	mov	r2, r5
   12864:	eb003a8e 	bl	212a4 <uECC_vli_modSquare_fast.lto_priv.223>
   12868:	e1a03005 	mov	r3, r5
   1286c:	e1a02004 	mov	r2, r4
   12870:	e1a01008 	mov	r1, r8
   12874:	e1a00008 	mov	r0, r8
   12878:	eb003a25 	bl	21114 <uECC_vli_modMult_fast>
   1287c:	e1a03005 	mov	r3, r5
   12880:	e1a02006 	mov	r2, r6
   12884:	e1a01004 	mov	r1, r4
   12888:	e1a00004 	mov	r0, r4
   1288c:	eb003a20 	bl	21114 <uECC_vli_modMult_fast>
   12890:	e1a03005 	mov	r3, r5
   12894:	e1a02004 	mov	r2, r4
   12898:	e1a01007 	mov	r1, r7
   1289c:	e1a00007 	mov	r0, r7
   128a0:	eb003a1b 	bl	21114 <uECC_vli_modMult_fast>
   128a4:	e28dd020 	add	sp, sp, #32
   128a8:	e8bd81f0 	pop	{r4, r5, r6, r7, r8, pc}
   128ac:	0003ae8c 	.word	0x0003ae8c

000128b0 <XYcZ_add.constprop.41>:
   128b0:	e92d4ff0 	push	{r4, r5, r6, r7, r8, r9, sl, fp, lr}
   128b4:	e24dd02c 	sub	sp, sp, #44	; 0x2c
   128b8:	e59f814c 	ldr	r8, [pc, #332]	; 12a0c <XYcZ_add.constprop.41+0x15c>
   128bc:	e3a06008 	mov	r6, #8
   128c0:	e08d4006 	add	r4, sp, r6
   128c4:	e1a05002 	mov	r5, r2
   128c8:	e08f8008 	add	r8, pc, r8
   128cc:	e1a09003 	mov	r9, r3
   128d0:	e2887004 	add	r7, r8, #4
   128d4:	e1a0a000 	mov	sl, r0
   128d8:	e1a0b001 	mov	fp, r1
   128dc:	e1a02000 	mov	r2, r0
   128e0:	e1a03007 	mov	r3, r7
   128e4:	e1a01005 	mov	r1, r5
   128e8:	e1a00004 	mov	r0, r4
   128ec:	e58d6000 	str	r6, [sp]
   128f0:	eb003aaf 	bl	213b4 <uECC_vli_modSub>
   128f4:	e1a02008 	mov	r2, r8
   128f8:	e1a01004 	mov	r1, r4
   128fc:	e1a00004 	mov	r0, r4
   12900:	eb003a67 	bl	212a4 <uECC_vli_modSquare_fast.lto_priv.223>
   12904:	e1a03008 	mov	r3, r8
   12908:	e1a02004 	mov	r2, r4
   1290c:	e1a0100a 	mov	r1, sl
   12910:	e1a0000a 	mov	r0, sl
   12914:	eb0039fe 	bl	21114 <uECC_vli_modMult_fast>
   12918:	e1a03008 	mov	r3, r8
   1291c:	e1a02004 	mov	r2, r4
   12920:	e1a01005 	mov	r1, r5
   12924:	e1a00005 	mov	r0, r5
   12928:	eb0039f9 	bl	21114 <uECC_vli_modMult_fast>
   1292c:	e1a03007 	mov	r3, r7
   12930:	e1a0200b 	mov	r2, fp
   12934:	e1a01009 	mov	r1, r9
   12938:	e1a00009 	mov	r0, r9
   1293c:	e58d6000 	str	r6, [sp]
   12940:	eb003a9b 	bl	213b4 <uECC_vli_modSub>
   12944:	e1a02008 	mov	r2, r8
   12948:	e1a01009 	mov	r1, r9
   1294c:	e1a00004 	mov	r0, r4
   12950:	eb003a53 	bl	212a4 <uECC_vli_modSquare_fast.lto_priv.223>
   12954:	e1a03007 	mov	r3, r7
   12958:	e1a0200a 	mov	r2, sl
   1295c:	e1a01004 	mov	r1, r4
   12960:	e1a00004 	mov	r0, r4
   12964:	e58d6000 	str	r6, [sp]
   12968:	eb003a91 	bl	213b4 <uECC_vli_modSub>
   1296c:	e1a03007 	mov	r3, r7
   12970:	e1a02005 	mov	r2, r5
   12974:	e1a01004 	mov	r1, r4
   12978:	e1a00004 	mov	r0, r4
   1297c:	e58d6000 	str	r6, [sp]
   12980:	eb003a8b 	bl	213b4 <uECC_vli_modSub>
   12984:	e1a03007 	mov	r3, r7
   12988:	e1a0200a 	mov	r2, sl
   1298c:	e1a01005 	mov	r1, r5
   12990:	e1a00005 	mov	r0, r5
   12994:	e58d6000 	str	r6, [sp]
   12998:	eb003a85 	bl	213b4 <uECC_vli_modSub>
   1299c:	e1a03008 	mov	r3, r8
   129a0:	e1a02005 	mov	r2, r5
   129a4:	e1a0100b 	mov	r1, fp
   129a8:	e1a0000b 	mov	r0, fp
   129ac:	eb0039d8 	bl	21114 <uECC_vli_modMult_fast>
   129b0:	e1a03007 	mov	r3, r7
   129b4:	e1a02004 	mov	r2, r4
   129b8:	e1a0100a 	mov	r1, sl
   129bc:	e1a00005 	mov	r0, r5
   129c0:	e58d6000 	str	r6, [sp]
   129c4:	eb003a7a 	bl	213b4 <uECC_vli_modSub>
   129c8:	e1a03008 	mov	r3, r8
   129cc:	e1a02005 	mov	r2, r5
   129d0:	e1a01009 	mov	r1, r9
   129d4:	e1a00009 	mov	r0, r9
   129d8:	eb0039cd 	bl	21114 <uECC_vli_modMult_fast>
   129dc:	e1a03007 	mov	r3, r7
   129e0:	e1a0200b 	mov	r2, fp
   129e4:	e1a01009 	mov	r1, r9
   129e8:	e1a00009 	mov	r0, r9
   129ec:	e58d6000 	str	r6, [sp]
   129f0:	eb003a6f 	bl	213b4 <uECC_vli_modSub>
   129f4:	e1a02006 	mov	r2, r6
   129f8:	e1a01004 	mov	r1, r4
   129fc:	e1a00005 	mov	r0, r5
   12a00:	eb003abe 	bl	21500 <uECC_vli_set>
   12a04:	e28dd02c 	add	sp, sp, #44	; 0x2c
   12a08:	e8bd8ff0 	pop	{r4, r5, r6, r7, r8, r9, sl, fp, pc}
   12a0c:	0003ae14 	.word	0x0003ae14

00012a10 <XYcZ_addC.constprop.40>:
   12a10:	e92d4ff0 	push	{r4, r5, r6, r7, r8, r9, sl, fp, lr}
   12a14:	e24dd074 	sub	sp, sp, #116	; 0x74
   12a18:	e59f91d8 	ldr	r9, [pc, #472]	; 12bf8 <XYcZ_addC.constprop.40+0x1e8>
   12a1c:	e28d7010 	add	r7, sp, #16
   12a20:	e1a08002 	mov	r8, r2
   12a24:	e3a04008 	mov	r4, #8
   12a28:	e08f9009 	add	r9, pc, r9
   12a2c:	e1a0b003 	mov	fp, r3
   12a30:	e2896004 	add	r6, r9, #4
   12a34:	e1a0a000 	mov	sl, r0
   12a38:	e58d100c 	str	r1, [sp, #12]
   12a3c:	e1a02000 	mov	r2, r0
   12a40:	e1a03006 	mov	r3, r6
   12a44:	e1a01008 	mov	r1, r8
   12a48:	e1a00007 	mov	r0, r7
   12a4c:	e58d4000 	str	r4, [sp]
   12a50:	eb003a57 	bl	213b4 <uECC_vli_modSub>
   12a54:	e1a02009 	mov	r2, r9
   12a58:	e1a01007 	mov	r1, r7
   12a5c:	e1a00007 	mov	r0, r7
   12a60:	eb003a0f 	bl	212a4 <uECC_vli_modSquare_fast.lto_priv.223>
   12a64:	e1a03009 	mov	r3, r9
   12a68:	e1a02007 	mov	r2, r7
   12a6c:	e1a0100a 	mov	r1, sl
   12a70:	e1a0000a 	mov	r0, sl
   12a74:	e28d5030 	add	r5, sp, #48	; 0x30
   12a78:	eb0039a5 	bl	21114 <uECC_vli_modMult_fast>
   12a7c:	e1a03009 	mov	r3, r9
   12a80:	e1a02007 	mov	r2, r7
   12a84:	e1a01008 	mov	r1, r8
   12a88:	e1a00008 	mov	r0, r8
   12a8c:	eb0039a0 	bl	21114 <uECC_vli_modMult_fast>
   12a90:	e1a03006 	mov	r3, r6
   12a94:	e59d200c 	ldr	r2, [sp, #12]
   12a98:	e1a0100b 	mov	r1, fp
   12a9c:	e1a00007 	mov	r0, r7
   12aa0:	e58d4000 	str	r4, [sp]
   12aa4:	eb003a5f 	bl	21428 <uECC_vli_modAdd>
   12aa8:	e1a03006 	mov	r3, r6
   12aac:	e59d200c 	ldr	r2, [sp, #12]
   12ab0:	e1a0100b 	mov	r1, fp
   12ab4:	e1a0000b 	mov	r0, fp
   12ab8:	e58d4000 	str	r4, [sp]
   12abc:	eb003a3c 	bl	213b4 <uECC_vli_modSub>
   12ac0:	e1a03006 	mov	r3, r6
   12ac4:	e1a0200a 	mov	r2, sl
   12ac8:	e1a01008 	mov	r1, r8
   12acc:	e1a00005 	mov	r0, r5
   12ad0:	e58d4000 	str	r4, [sp]
   12ad4:	eb003a36 	bl	213b4 <uECC_vli_modSub>
   12ad8:	e59d100c 	ldr	r1, [sp, #12]
   12adc:	e1a03009 	mov	r3, r9
   12ae0:	e1a02005 	mov	r2, r5
   12ae4:	e1a00001 	mov	r0, r1
   12ae8:	eb003989 	bl	21114 <uECC_vli_modMult_fast>
   12aec:	e1a03006 	mov	r3, r6
   12af0:	e1a02008 	mov	r2, r8
   12af4:	e1a0100a 	mov	r1, sl
   12af8:	e1a00005 	mov	r0, r5
   12afc:	e58d4000 	str	r4, [sp]
   12b00:	eb003a48 	bl	21428 <uECC_vli_modAdd>
   12b04:	e1a02009 	mov	r2, r9
   12b08:	e1a0100b 	mov	r1, fp
   12b0c:	e1a00008 	mov	r0, r8
   12b10:	eb0039e3 	bl	212a4 <uECC_vli_modSquare_fast.lto_priv.223>
   12b14:	e1a03006 	mov	r3, r6
   12b18:	e1a02005 	mov	r2, r5
   12b1c:	e1a01008 	mov	r1, r8
   12b20:	e1a00008 	mov	r0, r8
   12b24:	e58d4000 	str	r4, [sp]
   12b28:	eb003a21 	bl	213b4 <uECC_vli_modSub>
   12b2c:	e1a02008 	mov	r2, r8
   12b30:	e28d8050 	add	r8, sp, #80	; 0x50
   12b34:	e1a03006 	mov	r3, r6
   12b38:	e1a0100a 	mov	r1, sl
   12b3c:	e58d4000 	str	r4, [sp]
   12b40:	e1a00008 	mov	r0, r8
   12b44:	eb003a1a 	bl	213b4 <uECC_vli_modSub>
   12b48:	e1a03009 	mov	r3, r9
   12b4c:	e1a02008 	mov	r2, r8
   12b50:	e1a0100b 	mov	r1, fp
   12b54:	e1a0000b 	mov	r0, fp
   12b58:	eb00396d 	bl	21114 <uECC_vli_modMult_fast>
   12b5c:	e1a03006 	mov	r3, r6
   12b60:	e59d200c 	ldr	r2, [sp, #12]
   12b64:	e1a0100b 	mov	r1, fp
   12b68:	e1a0000b 	mov	r0, fp
   12b6c:	e58d4000 	str	r4, [sp]
   12b70:	eb003a0f 	bl	213b4 <uECC_vli_modSub>
   12b74:	e1a02009 	mov	r2, r9
   12b78:	e1a01007 	mov	r1, r7
   12b7c:	e1a00008 	mov	r0, r8
   12b80:	eb0039c7 	bl	212a4 <uECC_vli_modSquare_fast.lto_priv.223>
   12b84:	e1a03006 	mov	r3, r6
   12b88:	e1a02005 	mov	r2, r5
   12b8c:	e1a01008 	mov	r1, r8
   12b90:	e1a00008 	mov	r0, r8
   12b94:	e58d4000 	str	r4, [sp]
   12b98:	eb003a05 	bl	213b4 <uECC_vli_modSub>
   12b9c:	e1a03006 	mov	r3, r6
   12ba0:	e1a0200a 	mov	r2, sl
   12ba4:	e1a01008 	mov	r1, r8
   12ba8:	e1a00005 	mov	r0, r5
   12bac:	e58d4000 	str	r4, [sp]
   12bb0:	eb0039ff 	bl	213b4 <uECC_vli_modSub>
   12bb4:	e1a03009 	mov	r3, r9
   12bb8:	e1a02007 	mov	r2, r7
   12bbc:	e1a01005 	mov	r1, r5
   12bc0:	e1a00005 	mov	r0, r5
   12bc4:	eb003952 	bl	21114 <uECC_vli_modMult_fast>
   12bc8:	e59d200c 	ldr	r2, [sp, #12]
   12bcc:	e1a03006 	mov	r3, r6
   12bd0:	e1a01005 	mov	r1, r5
   12bd4:	e58d4000 	str	r4, [sp]
   12bd8:	e1a00002 	mov	r0, r2
   12bdc:	eb0039f4 	bl	213b4 <uECC_vli_modSub>
   12be0:	e1a02004 	mov	r2, r4
   12be4:	e1a01008 	mov	r1, r8
   12be8:	e1a0000a 	mov	r0, sl
   12bec:	eb003a43 	bl	21500 <uECC_vli_set>
   12bf0:	e28dd074 	add	sp, sp, #116	; 0x74
   12bf4:	e8bd8ff0 	pop	{r4, r5, r6, r7, r8, r9, sl, fp, pc}
   12bf8:	0003acb4 	.word	0x0003acb4

00012bfc <print_bytes>:
   12bfc:	e92d47f0 	push	{r4, r5, r6, r7, r8, r9, sl, lr}
   12c00:	e1a06000 	mov	r6, r0
   12c04:	e59f7040 	ldr	r7, [pc, #64]	; 12c4c <print_bytes+0x50>
   12c08:	e1a05001 	mov	r5, r1
   12c0c:	e59f803c 	ldr	r8, [pc, #60]	; 12c50 <print_bytes+0x54>
   12c10:	e3a04000 	mov	r4, #0
   12c14:	e59f9038 	ldr	r9, [pc, #56]	; 12c54 <print_bytes+0x58>
   12c18:	e08f7007 	add	r7, pc, r7
   12c1c:	e08f8008 	add	r8, pc, r8
   12c20:	e08f9009 	add	r9, pc, r9
   12c24:	e1540005 	cmp	r4, r5
   12c28:	08bd87f0 	popeq	{r4, r5, r6, r7, r8, r9, sl, pc}
   12c2c:	e3540000 	cmp	r4, #0
   12c30:	e7d62004 	ldrb	r2, [r6, r4]
   12c34:	e1a00009 	mov	r0, r9
   12c38:	e2844001 	add	r4, r4, #1
   12c3c:	11a01007 	movne	r1, r7
   12c40:	01a01008 	moveq	r1, r8
   12c44:	ebfffb18 	bl	118ac <printf@plt>
   12c48:	eafffff5 	b	12c24 <print_bytes+0x28>
   12c4c:	00024291 	.word	0x00024291
   12c50:	00024a77 	.word	0x00024a77
   12c54:	0002374b 	.word	0x0002374b

00012c58 <cmd_l2cap_show_coc>:
   12c58:	e92d47f0 	push	{r4, r5, r6, r7, r8, r9, sl, lr}
   12c5c:	e3a06000 	mov	r6, #0
   12c60:	e59f4074 	ldr	r4, [pc, #116]	; 12cdc <cmd_l2cap_show_coc+0x84>
   12c64:	e59f8074 	ldr	r8, [pc, #116]	; 12ce0 <cmd_l2cap_show_coc+0x88>
   12c68:	e08f4004 	add	r4, pc, r4
   12c6c:	e08f8008 	add	r8, pc, r8
   12c70:	e1a07004 	mov	r7, r4
   12c74:	e5973030 	ldr	r3, [r7, #48]	; 0x30
   12c78:	e1530006 	cmp	r3, r6
   12c7c:	ca000001 	bgt	12c88 <cmd_l2cap_show_coc+0x30>
   12c80:	e3a00000 	mov	r0, #0
   12c84:	e8bd87f0 	pop	{r4, r5, r6, r7, r8, r9, sl, pc}
   12c88:	e5943008 	ldr	r3, [r4, #8]
   12c8c:	e3530000 	cmp	r3, #0
   12c90:	1a000002 	bne	12ca0 <cmd_l2cap_show_coc+0x48>
   12c94:	e2866001 	add	r6, r6, #1
   12c98:	e284400c 	add	r4, r4, #12
   12c9c:	eafffff4 	b	12c74 <cmd_l2cap_show_coc+0x1c>
   12ca0:	e59f003c 	ldr	r0, [pc, #60]	; 12ce4 <cmd_l2cap_show_coc+0x8c>
   12ca4:	e1d410b0 	ldrh	r1, [r4]
   12ca8:	e08f0000 	add	r0, pc, r0
   12cac:	ebfffafe 	bl	118ac <printf@plt>
   12cb0:	e5945008 	ldr	r5, [r4, #8]
   12cb4:	e3a01000 	mov	r1, #0
   12cb8:	e3550000 	cmp	r5, #0
   12cbc:	0afffff4 	beq	12c94 <cmd_l2cap_show_coc+0x3c>
   12cc0:	e2819001 	add	r9, r1, #1
   12cc4:	e5952004 	ldr	r2, [r5, #4]
   12cc8:	e1a00008 	mov	r0, r8
   12ccc:	ebfffaf6 	bl	118ac <printf@plt>
   12cd0:	e5955000 	ldr	r5, [r5]
   12cd4:	e1a01009 	mov	r1, r9
   12cd8:	eafffff6 	b	12cb8 <cmd_l2cap_show_coc+0x60>
   12cdc:	0003cc5c 	.word	0x0003cc5c
   12ce0:	0002371d 	.word	0x0002371d
   12ce4:	000236cc 	.word	0x000236cc

00012ce8 <btshell_on_l2cap_update>:
   12ce8:	e1a02001 	mov	r2, r1
   12cec:	e1a01000 	mov	r1, r0
   12cf0:	e59f0004 	ldr	r0, [pc, #4]	; 12cfc <btshell_on_l2cap_update+0x14>
   12cf4:	e08f0000 	add	r0, pc, r0
   12cf8:	eafffaeb 	b	118ac <printf@plt>
   12cfc:	000236b5 	.word	0x000236b5

00012d00 <on_stop>:
   12d00:	e2501000 	subs	r1, r0, #0
   12d04:	1a000002 	bne	12d14 <on_stop+0x14>
   12d08:	e59f0010 	ldr	r0, [pc, #16]	; 12d20 <on_stop+0x20>
   12d0c:	e08f0000 	add	r0, pc, r0
   12d10:	eafffb1e 	b	11990 <puts@plt>
   12d14:	e59f0008 	ldr	r0, [pc, #8]	; 12d24 <on_stop+0x24>
   12d18:	e08f0000 	add	r0, pc, r0
   12d1c:	eafffae2 	b	118ac <printf@plt>
   12d20:	000236ce 	.word	0x000236ce
   12d24:	000236cf 	.word	0x000236cf

00012d28 <ble_on_write>:
   12d28:	e1d230b0 	ldrh	r3, [r2]
   12d2c:	e1a02000 	mov	r2, r0
   12d30:	e59f0014 	ldr	r0, [pc, #20]	; 12d4c <ble_on_write+0x24>
   12d34:	e92d4010 	push	{r4, lr}
   12d38:	e08f0000 	add	r0, pc, r0
   12d3c:	e1d110b0 	ldrh	r1, [r1]
   12d40:	ebfffad9 	bl	118ac <printf@plt>
   12d44:	e3a00000 	mov	r0, #0
   12d48:	e8bd8010 	pop	{r4, pc}
   12d4c:	000236cb 	.word	0x000236cb

00012d50 <btshell_on_reset.lto_priv.259>:
   12d50:	e1a01000 	mov	r1, r0
   12d54:	e59f0004 	ldr	r0, [pc, #4]	; 12d60 <btshell_on_reset.lto_priv.259+0x10>
   12d58:	e08f0000 	add	r0, pc, r0
   12d5c:	eafffad2 	b	118ac <printf@plt>
   12d60:	000236e4 	.word	0x000236e4

00012d64 <parse_arg_all>:
   12d64:	e92d4ff7 	push	{r0, r1, r2, r4, r5, r6, r7, r8, r9, sl, fp, lr}
   12d68:	e28d8004 	add	r8, sp, #4
   12d6c:	e59f30c4 	ldr	r3, [pc, #196]	; 12e38 <parse_arg_all+0xd4>
   12d70:	e1a0a000 	mov	sl, r0
   12d74:	e59f90c0 	ldr	r9, [pc, #192]	; 12e3c <parse_arg_all+0xd8>
   12d78:	e1a05001 	mov	r5, r1
   12d7c:	e59f60bc 	ldr	r6, [pc, #188]	; 12e40 <parse_arg_all+0xdc>
   12d80:	e08f3003 	add	r3, pc, r3
   12d84:	e08f9009 	add	r9, pc, r9
   12d88:	e3a04000 	mov	r4, #0
   12d8c:	e08f6006 	add	r6, pc, r6
   12d90:	e5834034 	str	r4, [r3, #52]	; 0x34
   12d94:	e154000a 	cmp	r4, sl
   12d98:	a3a00000 	movge	r0, #0
   12d9c:	aa000015 	bge	12df8 <parse_arg_all+0x94>
   12da0:	e1a0b005 	mov	fp, r5
   12da4:	e1a02008 	mov	r2, r8
   12da8:	e1a01009 	mov	r1, r9
   12dac:	e59b0000 	ldr	r0, [fp]
   12db0:	ebfffae4 	bl	11948 <strtok_r@plt>
   12db4:	e1a02008 	mov	r2, r8
   12db8:	e1a01009 	mov	r1, r9
   12dbc:	e2855004 	add	r5, r5, #4
   12dc0:	e1a07000 	mov	r7, r0
   12dc4:	e3a00000 	mov	r0, #0
   12dc8:	ebfffade 	bl	11948 <strtok_r@plt>
   12dcc:	e3570000 	cmp	r7, #0
   12dd0:	13500000 	cmpne	r0, #0
   12dd4:	0a000015 	beq	12e30 <parse_arg_all+0xcc>
   12dd8:	e5d73000 	ldrb	r3, [r7]
   12ddc:	e3530000 	cmp	r3, #0
   12de0:	1a000006 	bne	12e00 <parse_arg_all+0x9c>
   12de4:	e59f0058 	ldr	r0, [pc, #88]	; 12e44 <parse_arg_all+0xe0>
   12de8:	e59b1000 	ldr	r1, [fp]
   12dec:	e08f0000 	add	r0, pc, r0
   12df0:	ebfffaad 	bl	118ac <printf@plt>
   12df4:	e3e00000 	mvn	r0, #0
   12df8:	e28dd00c 	add	sp, sp, #12
   12dfc:	e8bd8ff0 	pop	{r4, r5, r6, r7, r8, r9, sl, fp, pc}
   12e00:	e5963034 	ldr	r3, [r6, #52]	; 0x34
   12e04:	e353000f 	cmp	r3, #15
   12e08:	da000003 	ble	12e1c <parse_arg_all+0xb8>
   12e0c:	e59f0034 	ldr	r0, [pc, #52]	; 12e48 <parse_arg_all+0xe4>
   12e10:	e08f0000 	add	r0, pc, r0
   12e14:	ebfffaa4 	bl	118ac <printf@plt>
   12e18:	eafffff5 	b	12df4 <parse_arg_all+0x90>
   12e1c:	e0862183 	add	r2, r6, r3, lsl #3
   12e20:	e2833001 	add	r3, r3, #1
   12e24:	e5863034 	str	r3, [r6, #52]	; 0x34
   12e28:	e5827038 	str	r7, [r2, #56]	; 0x38
   12e2c:	e582003c 	str	r0, [r2, #60]	; 0x3c
   12e30:	e2844001 	add	r4, r4, #1
   12e34:	eaffffd6 	b	12d94 <parse_arg_all+0x30>
   12e38:	0003cb44 	.word	0x0003cb44
   12e3c:	00026321 	.word	0x00026321
   12e40:	0003cb38 	.word	0x0003cb38
   12e44:	00023673 	.word	0x00023673
   12e48:	0002366c 	.word	0x0002366c

00012e4c <parse_arg_extract>:
   12e4c:	e59f305c 	ldr	r3, [pc, #92]	; 12eb0 <parse_arg_extract+0x64>
   12e50:	e92d47f0 	push	{r4, r5, r6, r7, r8, r9, sl, lr}
   12e54:	e08f3003 	add	r3, pc, r3
   12e58:	e59f5054 	ldr	r5, [pc, #84]	; 12eb4 <parse_arg_extract+0x68>
   12e5c:	e1a08000 	mov	r8, r0
   12e60:	e5937034 	ldr	r7, [r3, #52]	; 0x34
   12e64:	e3a04000 	mov	r4, #0
   12e68:	e08f5005 	add	r5, pc, r5
   12e6c:	e2859038 	add	r9, r5, #56	; 0x38
   12e70:	e1570004 	cmp	r7, r4
   12e74:	ca000001 	bgt	12e80 <parse_arg_extract+0x34>
   12e78:	e3a00000 	mov	r0, #0
   12e7c:	e8bd87f0 	pop	{r4, r5, r6, r7, r8, r9, sl, pc}
   12e80:	e7996184 	ldr	r6, [r9, r4, lsl #3]
   12e84:	e1a01008 	mov	r1, r8
   12e88:	e1a00006 	mov	r0, r6
   12e8c:	ebfffae0 	bl	11a14 <strcmp@plt>
   12e90:	e3500000 	cmp	r0, #0
   12e94:	1a000003 	bne	12ea8 <parse_arg_extract+0x5c>
   12e98:	e0854184 	add	r4, r5, r4, lsl #3
   12e9c:	e5c60000 	strb	r0, [r6]
   12ea0:	e594003c 	ldr	r0, [r4, #60]	; 0x3c
   12ea4:	e8bd87f0 	pop	{r4, r5, r6, r7, r8, r9, sl, pc}
   12ea8:	e2844001 	add	r4, r4, #1
   12eac:	eaffffef 	b	12e70 <parse_arg_extract+0x24>
   12eb0:	0003ca70 	.word	0x0003ca70
   12eb4:	0003ca5c 	.word	0x0003ca5c

00012eb8 <parse_arg_uint64_bounds.constprop.9>:
   12eb8:	e92d40f7 	push	{r0, r1, r2, r4, r5, r6, r7, lr}
   12ebc:	e1a07003 	mov	r7, r3
   12ec0:	e1a06002 	mov	r6, r2
   12ec4:	e59d5020 	ldr	r5, [sp, #32]
   12ec8:	ebffffdf 	bl	12e4c <parse_arg_extract>
   12ecc:	e2504000 	subs	r4, r0, #0
   12ed0:	03a03002 	moveq	r3, #2
   12ed4:	0a00001a 	beq	12f44 <parse_arg_uint64_bounds.constprop.9+0x8c>
   12ed8:	e5d43000 	ldrb	r3, [r4]
   12edc:	e3530030 	cmp	r3, #48	; 0x30
   12ee0:	13a0200a 	movne	r2, #10
   12ee4:	1a000003 	bne	12ef8 <parse_arg_uint64_bounds.constprop.9+0x40>
   12ee8:	e5d43001 	ldrb	r3, [r4, #1]
   12eec:	e3530078 	cmp	r3, #120	; 0x78
   12ef0:	13a0200a 	movne	r2, #10
   12ef4:	03a02000 	moveq	r2, #0
   12ef8:	e28d1004 	add	r1, sp, #4
   12efc:	e1a00004 	mov	r0, r4
   12f00:	ebfffa21 	bl	1178c <strtoull@plt>
   12f04:	e5d43000 	ldrb	r3, [r4]
   12f08:	e3530000 	cmp	r3, #0
   12f0c:	0a00000b 	beq	12f40 <parse_arg_uint64_bounds.constprop.9+0x88>
   12f10:	e59d3004 	ldr	r3, [sp, #4]
   12f14:	e1510007 	cmp	r1, r7
   12f18:	01500006 	cmpeq	r0, r6
   12f1c:	e5d32000 	ldrb	r2, [r3]
   12f20:	93a03001 	movls	r3, #1
   12f24:	83a03000 	movhi	r3, #0
   12f28:	e3520000 	cmp	r2, #0
   12f2c:	13a03000 	movne	r3, #0
   12f30:	e3530000 	cmp	r3, #0
   12f34:	13a03000 	movne	r3, #0
   12f38:	15853000 	strne	r3, [r5]
   12f3c:	1a000003 	bne	12f50 <parse_arg_uint64_bounds.constprop.9+0x98>
   12f40:	e3a03016 	mov	r3, #22
   12f44:	e3a00000 	mov	r0, #0
   12f48:	e3a01000 	mov	r1, #0
   12f4c:	e5853000 	str	r3, [r5]
   12f50:	e28dd00c 	add	sp, sp, #12
   12f54:	e8bd80f0 	pop	{r4, r5, r6, r7, pc}

00012f58 <parse_arg_uint32>:
   12f58:	e92d4007 	push	{r0, r1, r2, lr}
   12f5c:	e3a03000 	mov	r3, #0
   12f60:	e58d1000 	str	r1, [sp]
   12f64:	e3e02000 	mvn	r2, #0
   12f68:	ebffffd2 	bl	12eb8 <parse_arg_uint64_bounds.constprop.9>
   12f6c:	e28dd00c 	add	sp, sp, #12
   12f70:	e49df004 	pop	{pc}		; (ldr pc, [sp], #4)

00012f74 <parse_arg_byte_stream>:
   12f74:	e92d4ff7 	push	{r0, r1, r2, r4, r5, r6, r7, r8, r9, sl, fp, lr}
   12f78:	e1a07001 	mov	r7, r1
   12f7c:	e1a08002 	mov	r8, r2
   12f80:	e1a05003 	mov	r5, r3
   12f84:	ebffffb0 	bl	12e4c <parse_arg_extract>
   12f88:	e2506000 	subs	r6, r0, #0
   12f8c:	03a00002 	moveq	r0, #2
   12f90:	0a00000b 	beq	12fc4 <parse_arg_byte_stream+0x50>
   12f94:	e28d4004 	add	r4, sp, #4
   12f98:	e59f109c 	ldr	r1, [pc, #156]	; 1303c <parse_arg_byte_stream+0xc8>
   12f9c:	e59fa09c 	ldr	sl, [pc, #156]	; 13040 <parse_arg_byte_stream+0xcc>
   12fa0:	e3a0b000 	mov	fp, #0
   12fa4:	e1a02004 	mov	r2, r4
   12fa8:	e08f1001 	add	r1, pc, r1
   12fac:	ebfffa65 	bl	11948 <strtok_r@plt>
   12fb0:	e08fa00a 	add	sl, pc, sl
   12fb4:	e1a0900d 	mov	r9, sp
   12fb8:	e3500000 	cmp	r0, #0
   12fbc:	1a000002 	bne	12fcc <parse_arg_byte_stream+0x58>
   12fc0:	e585b000 	str	fp, [r5]
   12fc4:	e28dd00c 	add	sp, sp, #12
   12fc8:	e8bd8ff0 	pop	{r4, r5, r6, r7, r8, r9, sl, fp, pc}
   12fcc:	e157000b 	cmp	r7, fp
   12fd0:	da000015 	ble	1302c <parse_arg_byte_stream+0xb8>
   12fd4:	e3a02010 	mov	r2, #16
   12fd8:	e1a01009 	mov	r1, r9
   12fdc:	ebfffa14 	bl	11834 <strtoul@plt>
   12fe0:	e5d63000 	ldrb	r3, [r6]
   12fe4:	e3530000 	cmp	r3, #0
   12fe8:	0a000011 	beq	13034 <parse_arg_byte_stream+0xc0>
   12fec:	e59d3000 	ldr	r3, [sp]
   12ff0:	e35000ff 	cmp	r0, #255	; 0xff
   12ff4:	e5d32000 	ldrb	r2, [r3]
   12ff8:	93a03000 	movls	r3, #0
   12ffc:	83a03001 	movhi	r3, #1
   13000:	e3520000 	cmp	r2, #0
   13004:	13a03001 	movne	r3, #1
   13008:	e3530000 	cmp	r3, #0
   1300c:	1a000008 	bne	13034 <parse_arg_byte_stream+0xc0>
   13010:	e7c8000b 	strb	r0, [r8, fp]
   13014:	e1a02004 	mov	r2, r4
   13018:	e1a0100a 	mov	r1, sl
   1301c:	e1a00003 	mov	r0, r3
   13020:	e28bb001 	add	fp, fp, #1
   13024:	ebfffa47 	bl	11948 <strtok_r@plt>
   13028:	eaffffe2 	b	12fb8 <parse_arg_byte_stream+0x44>
   1302c:	e3a00016 	mov	r0, #22
   13030:	eaffffe3 	b	12fc4 <parse_arg_byte_stream+0x50>
   13034:	e3e00000 	mvn	r0, #0
   13038:	eaffffe1 	b	12fc4 <parse_arg_byte_stream+0x50>
   1303c:	000234ee 	.word	0x000234ee
   13040:	000234e6 	.word	0x000234e6

00013044 <parse_arg_byte_stream_exact_length>:
   13044:	e92d4013 	push	{r0, r1, r4, lr}
   13048:	e1a04002 	mov	r4, r2
   1304c:	e28d3004 	add	r3, sp, #4
   13050:	e1a02001 	mov	r2, r1
   13054:	e1a01004 	mov	r1, r4
   13058:	ebffffc5 	bl	12f74 <parse_arg_byte_stream>
   1305c:	e3500000 	cmp	r0, #0
   13060:	1a000002 	bne	13070 <parse_arg_byte_stream_exact_length+0x2c>
   13064:	e59d3004 	ldr	r3, [sp, #4]
   13068:	e1530004 	cmp	r3, r4
   1306c:	13a00016 	movne	r0, #22
   13070:	e28dd008 	add	sp, sp, #8
   13074:	e8bd8010 	pop	{r4, pc}

00013078 <parse_arg_mac>:
   13078:	e92d4070 	push	{r4, r5, r6, lr}
   1307c:	e3a02006 	mov	r2, #6
   13080:	e1a05001 	mov	r5, r1
   13084:	ebffffee 	bl	13044 <parse_arg_byte_stream_exact_length>
   13088:	e2504000 	subs	r4, r0, #0
   1308c:	1a000002 	bne	1309c <parse_arg_mac+0x24>
   13090:	e3a01006 	mov	r1, #6
   13094:	e1a00005 	mov	r0, r5
   13098:	ebfffd4d 	bl	125d4 <parse_reverse_bytes>
   1309c:	e1a00004 	mov	r0, r4
   130a0:	e8bd8070 	pop	{r4, r5, r6, pc}

000130a4 <parse_arg_kv>:
   130a4:	e92d41f0 	push	{r4, r5, r6, r7, r8, lr}
   130a8:	e1a04001 	mov	r4, r1
   130ac:	e1a05002 	mov	r5, r2
   130b0:	ebffff65 	bl	12e4c <parse_arg_extract>
   130b4:	e2507000 	subs	r7, r0, #0
   130b8:	03a03002 	moveq	r3, #2
   130bc:	0a000004 	beq	130d4 <parse_arg_kv+0x30>
   130c0:	e5941000 	ldr	r1, [r4]
   130c4:	e1a06004 	mov	r6, r4
   130c8:	e3510000 	cmp	r1, #0
   130cc:	1a000003 	bne	130e0 <parse_arg_kv+0x3c>
   130d0:	e3a03016 	mov	r3, #22
   130d4:	e5853000 	str	r3, [r5]
   130d8:	e3e00000 	mvn	r0, #0
   130dc:	e8bd81f0 	pop	{r4, r5, r6, r7, r8, pc}
   130e0:	e1a00007 	mov	r0, r7
   130e4:	e2844008 	add	r4, r4, #8
   130e8:	ebfffa49 	bl	11a14 <strcmp@plt>
   130ec:	e3500000 	cmp	r0, #0
   130f0:	1afffff2 	bne	130c0 <parse_arg_kv+0x1c>
   130f4:	e5850000 	str	r0, [r5]
   130f8:	e5960004 	ldr	r0, [r6, #4]
   130fc:	e8bd81f0 	pop	{r4, r5, r6, r7, r8, pc}

00013100 <parse_arg_kv_dflt>:
   13100:	e92d4037 	push	{r0, r1, r2, r4, r5, lr}
   13104:	e1a05002 	mov	r5, r2
   13108:	e28d2004 	add	r2, sp, #4
   1310c:	e1a04003 	mov	r4, r3
   13110:	ebffffe3 	bl	130a4 <parse_arg_kv>
   13114:	e59d3004 	ldr	r3, [sp, #4]
   13118:	e3530002 	cmp	r3, #2
   1311c:	03a03000 	moveq	r3, #0
   13120:	058d3004 	streq	r3, [sp, #4]
   13124:	e59d3004 	ldr	r3, [sp, #4]
   13128:	01a00005 	moveq	r0, r5
   1312c:	e5843000 	str	r3, [r4]
   13130:	e28dd00c 	add	sp, sp, #12
   13134:	e8bd8030 	pop	{r4, r5, pc}

00013138 <cmd_scan_name_set>:
   13138:	e92d4070 	push	{r4, r5, r6, lr}
   1313c:	e2811004 	add	r1, r1, #4
   13140:	e24dd028 	sub	sp, sp, #40	; 0x28
   13144:	e2400001 	sub	r0, r0, #1
   13148:	ebffff05 	bl	12d64 <parse_arg_all>
   1314c:	e2504000 	subs	r4, r0, #0
   13150:	1a00001a 	bne	131c0 <cmd_scan_name_set+0x88>
   13154:	e59f0070 	ldr	r0, [pc, #112]	; 131cc <cmd_scan_name_set+0x94>
   13158:	e08f0000 	add	r0, pc, r0
   1315c:	ebffff3a 	bl	12e4c <parse_arg_extract>
   13160:	e2506000 	subs	r6, r0, #0
   13164:	1a000004 	bne	1317c <cmd_scan_name_set+0x44>
   13168:	e59f0060 	ldr	r0, [pc, #96]	; 131d0 <cmd_scan_name_set+0x98>
   1316c:	e08f0000 	add	r0, pc, r0
   13170:	ebfffa06 	bl	11990 <puts@plt>
   13174:	e3e04000 	mvn	r4, #0
   13178:	ea000010 	b	131c0 <cmd_scan_name_set+0x88>
   1317c:	ebfff9a3 	bl	11810 <strlen@plt>
   13180:	e6ef5070 	uxtb	r5, r0
   13184:	e355001f 	cmp	r5, #31
   13188:	8afffff9 	bhi	13174 <cmd_scan_name_set+0x3c>
   1318c:	e1a02005 	mov	r2, r5
   13190:	e1a01006 	mov	r1, r6
   13194:	e28d0009 	add	r0, sp, #9
   13198:	e5cd5008 	strb	r5, [sp, #8]
   1319c:	ebfff9aa 	bl	1184c <memcpy@plt>
   131a0:	e2852001 	add	r2, r5, #1
   131a4:	e58d4000 	str	r4, [sp]
   131a8:	e1a03004 	mov	r3, r4
   131ac:	e6ef2072 	uxtb	r2, r2
   131b0:	e28d1008 	add	r1, sp, #8
   131b4:	e30f0f05 	movw	r0, #65285	; 0xff05
   131b8:	eb005ed1 	bl	2ad04 <ble_hs_hci_cmd_tx>
   131bc:	e1a04000 	mov	r4, r0
   131c0:	e1a00004 	mov	r0, r4
   131c4:	e28dd028 	add	sp, sp, #40	; 0x28
   131c8:	e8bd8070 	pop	{r4, r5, r6, pc}
   131cc:	00023341 	.word	0x00023341
   131d0:	00023337 	.word	0x00023337

000131d4 <parse_arg_peek>:
   131d4:	e59f3054 	ldr	r3, [pc, #84]	; 13230 <parse_arg_peek+0x5c>
   131d8:	e92d41f0 	push	{r4, r5, r6, r7, r8, lr}
   131dc:	e08f3003 	add	r3, pc, r3
   131e0:	e59f504c 	ldr	r5, [pc, #76]	; 13234 <parse_arg_peek+0x60>
   131e4:	e1a07000 	mov	r7, r0
   131e8:	e5936034 	ldr	r6, [r3, #52]	; 0x34
   131ec:	e3a04000 	mov	r4, #0
   131f0:	e08f5005 	add	r5, pc, r5
   131f4:	e2858038 	add	r8, r5, #56	; 0x38
   131f8:	e1560004 	cmp	r6, r4
   131fc:	ca000001 	bgt	13208 <parse_arg_peek+0x34>
   13200:	e3a00000 	mov	r0, #0
   13204:	e8bd81f0 	pop	{r4, r5, r6, r7, r8, pc}
   13208:	e1a01007 	mov	r1, r7
   1320c:	e7980184 	ldr	r0, [r8, r4, lsl #3]
   13210:	ebfff9ff 	bl	11a14 <strcmp@plt>
   13214:	e3500000 	cmp	r0, #0
   13218:	1a000002 	bne	13228 <parse_arg_peek+0x54>
   1321c:	e0854184 	add	r4, r5, r4, lsl #3
   13220:	e594003c 	ldr	r0, [r4, #60]	; 0x3c
   13224:	e8bd81f0 	pop	{r4, r5, r6, r7, r8, pc}
   13228:	e2844001 	add	r4, r4, #1
   1322c:	eafffff1 	b	131f8 <parse_arg_peek+0x24>
   13230:	0003c6e8 	.word	0x0003c6e8
   13234:	0003c6d4 	.word	0x0003c6d4

00013238 <cmd_srrc_set>:
   13238:	e92d4073 	push	{r0, r1, r4, r5, r6, lr}
   1323c:	e1a06000 	mov	r6, r0
   13240:	e1a05001 	mov	r5, r1
   13244:	e2400001 	sub	r0, r0, #1
   13248:	e2811004 	add	r1, r1, #4
   1324c:	ebfffec4 	bl	12d64 <parse_arg_all>
   13250:	e2504000 	subs	r4, r0, #0
   13254:	1a000016 	bne	132b4 <cmd_srrc_set+0x7c>
   13258:	e3560001 	cmp	r6, #1
   1325c:	da000014 	ble	132b4 <cmd_srrc_set+0x7c>
   13260:	e5955004 	ldr	r5, [r5, #4]
   13264:	e59f10b8 	ldr	r1, [pc, #184]	; 13324 <cmd_srrc_set+0xec>
   13268:	e1a00005 	mov	r0, r5
   1326c:	e08f1001 	add	r1, pc, r1
   13270:	ebfff9e7 	bl	11a14 <strcmp@plt>
   13274:	e3500000 	cmp	r0, #0
   13278:	1a000013 	bne	132cc <cmd_srrc_set+0x94>
   1327c:	e59f00a4 	ldr	r0, [pc, #164]	; 13328 <cmd_srrc_set+0xf0>
   13280:	e08f0000 	add	r0, pc, r0
   13284:	ebfff9c1 	bl	11990 <puts@plt>
   13288:	e58d4000 	str	r4, [sp]
   1328c:	e1a03004 	mov	r3, r4
   13290:	e1a02004 	mov	r2, r4
   13294:	e1a01004 	mov	r1, r4
   13298:	e30f0f06 	movw	r0, #65286	; 0xff06
   1329c:	eb005e98 	bl	2ad04 <ble_hs_hci_cmd_tx>
   132a0:	e2504000 	subs	r4, r0, #0
   132a4:	1a000005 	bne	132c0 <cmd_srrc_set+0x88>
   132a8:	e59f007c 	ldr	r0, [pc, #124]	; 1332c <cmd_srrc_set+0xf4>
   132ac:	e08f0000 	add	r0, pc, r0
   132b0:	ebfff9b6 	bl	11990 <puts@plt>
   132b4:	e1a00004 	mov	r0, r4
   132b8:	e28dd008 	add	sp, sp, #8
   132bc:	e8bd8070 	pop	{r4, r5, r6, pc}
   132c0:	e59f0068 	ldr	r0, [pc, #104]	; 13330 <cmd_srrc_set+0xf8>
   132c4:	e08f0000 	add	r0, pc, r0
   132c8:	eafffff8 	b	132b0 <cmd_srrc_set+0x78>
   132cc:	e59f1060 	ldr	r1, [pc, #96]	; 13334 <cmd_srrc_set+0xfc>
   132d0:	e1a00005 	mov	r0, r5
   132d4:	e08f1001 	add	r1, pc, r1
   132d8:	ebfff9cd 	bl	11a14 <strcmp@plt>
   132dc:	e3500000 	cmp	r0, #0
   132e0:	1afffff3 	bne	132b4 <cmd_srrc_set+0x7c>
   132e4:	e59f004c 	ldr	r0, [pc, #76]	; 13338 <cmd_srrc_set+0x100>
   132e8:	e08f0000 	add	r0, pc, r0
   132ec:	ebfff9a7 	bl	11990 <puts@plt>
   132f0:	e58d4000 	str	r4, [sp]
   132f4:	e1a03004 	mov	r3, r4
   132f8:	e1a02004 	mov	r2, r4
   132fc:	e1a01004 	mov	r1, r4
   13300:	e30f0f07 	movw	r0, #65287	; 0xff07
   13304:	eb005e7e 	bl	2ad04 <ble_hs_hci_cmd_tx>
   13308:	e2504000 	subs	r4, r0, #0
   1330c:	059f0028 	ldreq	r0, [pc, #40]	; 1333c <cmd_srrc_set+0x104>
   13310:	008f0000 	addeq	r0, pc, r0
   13314:	0affffe5 	beq	132b0 <cmd_srrc_set+0x78>
   13318:	e59f0020 	ldr	r0, [pc, #32]	; 13340 <cmd_srrc_set+0x108>
   1331c:	e08f0000 	add	r0, pc, r0
   13320:	eaffffe2 	b	132b0 <cmd_srrc_set+0x78>
   13324:	00027538 	.word	0x00027538
   13328:	00023233 	.word	0x00023233
   1332c:	00023216 	.word	0x00023216
   13330:	0002321a 	.word	0x0002321a
   13334:	0002749b 	.word	0x0002749b
   13338:	00023211 	.word	0x00023211
   1333c:	000231f7 	.word	0x000231f7
   13340:	00023206 	.word	0x00023206

00013344 <parse_arg_time_dflt>:
   13344:	e92d47f3 	push	{r0, r1, r4, r5, r6, r7, r8, r9, sl, lr}
   13348:	e1a08000 	mov	r8, r0
   1334c:	e1a09001 	mov	r9, r1
   13350:	e1a0a002 	mov	sl, r2
   13354:	e1a07003 	mov	r7, r3
   13358:	ebffff9d 	bl	131d4 <parse_arg_peek>
   1335c:	e2504000 	subs	r4, r0, #0
   13360:	0a000038 	beq	13448 <parse_arg_time_dflt+0x104>
   13364:	ebfff965 	bl	11900 <__ctype_b_loc@plt>
   13368:	e3a0c00a 	mov	ip, #10
   1336c:	e5902000 	ldr	r2, [r0]
   13370:	e1a00004 	mov	r0, r4
   13374:	e3a04000 	mov	r4, #0
   13378:	e1a06000 	mov	r6, r0
   1337c:	e4d03001 	ldrb	r3, [r0], #1
   13380:	e1a01083 	lsl	r1, r3, #1
   13384:	e19210b1 	ldrh	r1, [r2, r1]
   13388:	e3110b02 	tst	r1, #2048	; 0x800
   1338c:	1a000006 	bne	133ac <parse_arg_time_dflt+0x68>
   13390:	e353002e 	cmp	r3, #46	; 0x2e
   13394:	01a03000 	moveq	r3, r0
   13398:	03a05001 	moveq	r5, #1
   1339c:	03a0100a 	moveq	r1, #10
   133a0:	0a000007 	beq	133c4 <parse_arg_time_dflt+0x80>
   133a4:	e3a05001 	mov	r5, #1
   133a8:	ea00000b 	b	133dc <parse_arg_time_dflt+0x98>
   133ac:	e024349c 	mla	r4, ip, r4, r3
   133b0:	e2444030 	sub	r4, r4, #48	; 0x30
   133b4:	eaffffef 	b	13378 <parse_arg_time_dflt+0x34>
   133b8:	e0240491 	mla	r4, r1, r4, r0
   133bc:	e0050591 	mul	r5, r1, r5
   133c0:	e2444030 	sub	r4, r4, #48	; 0x30
   133c4:	e1a06003 	mov	r6, r3
   133c8:	e4d30001 	ldrb	r0, [r3], #1
   133cc:	e1a0c080 	lsl	ip, r0, #1
   133d0:	e192c0bc 	ldrh	ip, [r2, ip]
   133d4:	e31c0b02 	tst	ip, #2048	; 0x800
   133d8:	1afffff6 	bne	133b8 <parse_arg_time_dflt+0x74>
   133dc:	e59f10d0 	ldr	r1, [pc, #208]	; 134b4 <parse_arg_time_dflt+0x170>
   133e0:	e1a00006 	mov	r0, r6
   133e4:	e08f1001 	add	r1, pc, r1
   133e8:	ebfff8c3 	bl	116fc <strcasecmp@plt>
   133ec:	e3500000 	cmp	r0, #0
   133f0:	0a00001a 	beq	13460 <parse_arg_time_dflt+0x11c>
   133f4:	e59f10bc 	ldr	r1, [pc, #188]	; 134b8 <parse_arg_time_dflt+0x174>
   133f8:	e1a00006 	mov	r0, r6
   133fc:	e08f1001 	add	r1, pc, r1
   13400:	ebfff8bd 	bl	116fc <strcasecmp@plt>
   13404:	e3500000 	cmp	r0, #0
   13408:	0a000025 	beq	134a4 <parse_arg_time_dflt+0x160>
   1340c:	e59f10a8 	ldr	r1, [pc, #168]	; 134bc <parse_arg_time_dflt+0x178>
   13410:	e1a00006 	mov	r0, r6
   13414:	e08f1001 	add	r1, pc, r1
   13418:	ebfff8b7 	bl	116fc <strcasecmp@plt>
   1341c:	e3500000 	cmp	r0, #0
   13420:	0a000021 	beq	134ac <parse_arg_time_dflt+0x168>
   13424:	e28d1004 	add	r1, sp, #4
   13428:	e1a00008 	mov	r0, r8
   1342c:	e3a03016 	mov	r3, #22
   13430:	e58d3004 	str	r3, [sp, #4]
   13434:	ebfffec7 	bl	12f58 <parse_arg_uint32>
   13438:	e59d3004 	ldr	r3, [sp, #4]
   1343c:	e3530002 	cmp	r3, #2
   13440:	e1a04000 	mov	r4, r0
   13444:	1a000013 	bne	13498 <parse_arg_time_dflt+0x154>
   13448:	e1a0400a 	mov	r4, sl
   1344c:	e3a03000 	mov	r3, #0
   13450:	e5873000 	str	r3, [r7]
   13454:	e1a00004 	mov	r0, r4
   13458:	e28dd008 	add	sp, sp, #8
   1345c:	e8bd87f0 	pop	{r4, r5, r6, r7, r8, r9, sl, pc}
   13460:	e3a00001 	mov	r0, #1
   13464:	e1550000 	cmp	r5, r0
   13468:	21a01000 	movcs	r1, r0
   1346c:	31a01005 	movcc	r1, r5
   13470:	21a00005 	movcs	r0, r5
   13474:	eb0089ff 	bl	35c78 <__udivsi3>
   13478:	e1a01009 	mov	r1, r9
   1347c:	e3a03000 	mov	r3, #0
   13480:	e58d3004 	str	r3, [sp, #4]
   13484:	e0000094 	mul	r0, r4, r0
   13488:	eb0089fa 	bl	35c78 <__udivsi3>
   1348c:	e1a04000 	mov	r4, r0
   13490:	e1a00008 	mov	r0, r8
   13494:	ebfffe6c 	bl	12e4c <parse_arg_extract>
   13498:	e59d3004 	ldr	r3, [sp, #4]
   1349c:	e5873000 	str	r3, [r7]
   134a0:	eaffffeb 	b	13454 <parse_arg_time_dflt+0x110>
   134a4:	e3a00ffa 	mov	r0, #1000	; 0x3e8
   134a8:	eaffffed 	b	13464 <parse_arg_time_dflt+0x120>
   134ac:	e59f000c 	ldr	r0, [pc, #12]	; 134c0 <parse_arg_time_dflt+0x17c>
   134b0:	eaffffeb 	b	13464 <parse_arg_time_dflt+0x120>
   134b4:	00023158 	.word	0x00023158
   134b8:	00027c09 	.word	0x00027c09
   134bc:	00029720 	.word	0x00029720
   134c0:	000f4240 	.word	0x000f4240

000134c4 <parse_long_bounds>:
   134c4:	e92d41f3 	push	{r0, r1, r4, r5, r6, r7, r8, lr}
   134c8:	e1a06003 	mov	r6, r3
   134cc:	e5d03000 	ldrb	r3, [r0]
   134d0:	e1a07002 	mov	r7, r2
   134d4:	e1a04000 	mov	r4, r0
   134d8:	e1a08001 	mov	r8, r1
   134dc:	e3530030 	cmp	r3, #48	; 0x30
   134e0:	13a0200a 	movne	r2, #10
   134e4:	1a000003 	bne	134f8 <parse_long_bounds+0x34>
   134e8:	e5d03001 	ldrb	r3, [r0, #1]
   134ec:	e3530078 	cmp	r3, #120	; 0x78
   134f0:	13a0200a 	movne	r2, #10
   134f4:	03a02000 	moveq	r2, #0
   134f8:	e28d1004 	add	r1, sp, #4
   134fc:	e1a00004 	mov	r0, r4
   13500:	ebfff8da 	bl	11870 <strtol@plt>
   13504:	e5d41000 	ldrb	r1, [r4]
   13508:	e3510000 	cmp	r1, #0
   1350c:	0a00000f 	beq	13550 <parse_long_bounds+0x8c>
   13510:	e59d3004 	ldr	r3, [sp, #4]
   13514:	e5d33000 	ldrb	r3, [r3]
   13518:	e3530000 	cmp	r3, #0
   1351c:	1a00000b 	bne	13550 <parse_long_bounds+0x8c>
   13520:	e1500008 	cmp	r0, r8
   13524:	b3a05000 	movlt	r5, #0
   13528:	a3a05001 	movge	r5, #1
   1352c:	e1500007 	cmp	r0, r7
   13530:	c3a05000 	movgt	r5, #0
   13534:	e3550000 	cmp	r5, #0
   13538:	13a02000 	movne	r2, #0
   1353c:	03a02016 	moveq	r2, #22
   13540:	03a00000 	moveq	r0, #0
   13544:	e5862000 	str	r2, [r6]
   13548:	e28dd008 	add	sp, sp, #8
   1354c:	e8bd81f0 	pop	{r4, r5, r6, r7, r8, pc}
   13550:	e3a02016 	mov	r2, #22
   13554:	e3a00000 	mov	r0, #0
   13558:	eafffff9 	b	13544 <parse_long_bounds+0x80>

0001355c <parse_arg_uuid.constprop.2>:
   1355c:	e92d4070 	push	{r4, r5, r6, lr}
   13560:	e1a06000 	mov	r6, r0
   13564:	e59f40bc 	ldr	r4, [pc, #188]	; 13628 <parse_arg_uuid.constprop.2+0xcc>
   13568:	e24dd018 	sub	sp, sp, #24
   1356c:	e08f4004 	add	r4, pc, r4
   13570:	e1a00004 	mov	r0, r4
   13574:	ebffff16 	bl	131d4 <parse_arg_peek>
   13578:	e3500000 	cmp	r0, #0
   1357c:	03a03002 	moveq	r3, #2
   13580:	058d3004 	streq	r3, [sp, #4]
   13584:	0a000008 	beq	135ac <parse_arg_uuid.constprop.2+0x50>
   13588:	e28d3004 	add	r3, sp, #4
   1358c:	e30f2fff 	movw	r2, #65535	; 0xffff
   13590:	e3a01000 	mov	r1, #0
   13594:	ebffffca 	bl	134c4 <parse_long_bounds>
   13598:	e59d3004 	ldr	r3, [sp, #4]
   1359c:	e3530000 	cmp	r3, #0
   135a0:	0a000007 	beq	135c4 <parse_arg_uuid.constprop.2+0x68>
   135a4:	e3530002 	cmp	r3, #2
   135a8:	1a00000f 	bne	135ec <parse_arg_uuid.constprop.2+0x90>
   135ac:	e59f0078 	ldr	r0, [pc, #120]	; 1362c <parse_arg_uuid.constprop.2+0xd0>
   135b0:	e08f0000 	add	r0, pc, r0
   135b4:	ebfffe24 	bl	12e4c <parse_arg_extract>
   135b8:	e3a00002 	mov	r0, #2
   135bc:	e28dd018 	add	sp, sp, #24
   135c0:	e8bd8070 	pop	{r4, r5, r6, pc}
   135c4:	e1cd00b8 	strh	r0, [sp, #8]
   135c8:	e1a00004 	mov	r0, r4
   135cc:	ebfffe1e 	bl	12e4c <parse_arg_extract>
   135d0:	e3a02002 	mov	r2, #2
   135d4:	e28d1008 	add	r1, sp, #8
   135d8:	e1a00006 	mov	r0, r6
   135dc:	eb0042f3 	bl	241b0 <ble_uuid_init_from_buf>
   135e0:	e3500000 	cmp	r0, #0
   135e4:	0afffff4 	beq	135bc <parse_arg_uuid.constprop.2+0x60>
   135e8:	ea000007 	b	1360c <parse_arg_uuid.constprop.2+0xb0>
   135ec:	e28d5008 	add	r5, sp, #8
   135f0:	e3a02010 	mov	r2, #16
   135f4:	e1a00004 	mov	r0, r4
   135f8:	e1a01005 	mov	r1, r5
   135fc:	ebfffe90 	bl	13044 <parse_arg_byte_stream_exact_length>
   13600:	e3500000 	cmp	r0, #0
   13604:	e58d0004 	str	r0, [sp, #4]
   13608:	0a000001 	beq	13614 <parse_arg_uuid.constprop.2+0xb8>
   1360c:	e3a00016 	mov	r0, #22
   13610:	eaffffe9 	b	135bc <parse_arg_uuid.constprop.2+0x60>
   13614:	e3a01010 	mov	r1, #16
   13618:	e1a00005 	mov	r0, r5
   1361c:	ebfffbec 	bl	125d4 <parse_reverse_bytes>
   13620:	e3a02010 	mov	r2, #16
   13624:	eaffffea 	b	135d4 <parse_arg_uuid.constprop.2+0x78>
   13628:	00022fd3 	.word	0x00022fd3
   1362c:	00022f8f 	.word	0x00022f8f

00013630 <parse_arg_long_bounds>:
   13630:	e92d4070 	push	{r4, r5, r6, lr}
   13634:	e1a05001 	mov	r5, r1
   13638:	e1a06002 	mov	r6, r2
   1363c:	e1a04003 	mov	r4, r3
   13640:	ebfffe01 	bl	12e4c <parse_arg_extract>
   13644:	e3500000 	cmp	r0, #0
   13648:	1a000002 	bne	13658 <parse_arg_long_bounds+0x28>
   1364c:	e3a03002 	mov	r3, #2
   13650:	e5843000 	str	r3, [r4]
   13654:	e8bd8070 	pop	{r4, r5, r6, pc}
   13658:	e1a03004 	mov	r3, r4
   1365c:	e1a02006 	mov	r2, r6
   13660:	e1a01005 	mov	r1, r5
   13664:	e8bd4070 	pop	{r4, r5, r6, lr}
   13668:	eaffff95 	b	134c4 <parse_long_bounds>

0001366c <parse_arg_bool_dflt.constprop.7>:
   1366c:	e92d4013 	push	{r0, r1, r4, lr}
   13670:	e3a02001 	mov	r2, #1
   13674:	e1a04001 	mov	r4, r1
   13678:	e28d3004 	add	r3, sp, #4
   1367c:	e3a01000 	mov	r1, #0
   13680:	ebffffea 	bl	13630 <parse_arg_long_bounds>
   13684:	e59d3004 	ldr	r3, [sp, #4]
   13688:	e3530002 	cmp	r3, #2
   1368c:	03a00000 	moveq	r0, #0
   13690:	058d0004 	streq	r0, [sp, #4]
   13694:	e6ef0070 	uxtb	r0, r0
   13698:	e59d3004 	ldr	r3, [sp, #4]
   1369c:	e5843000 	str	r3, [r4]
   136a0:	e28dd008 	add	sp, sp, #8
   136a4:	e8bd8010 	pop	{r4, pc}

000136a8 <parse_arg_uint16>:
   136a8:	e1a03001 	mov	r3, r1
   136ac:	e30f2fff 	movw	r2, #65535	; 0xffff
   136b0:	e92d4010 	push	{r4, lr}
   136b4:	e3a01000 	mov	r1, #0
   136b8:	ebffffdc 	bl	13630 <parse_arg_long_bounds>
   136bc:	e6ff0070 	uxth	r0, r0
   136c0:	e8bd8010 	pop	{r4, pc}

000136c4 <parse_arg_uint16_dflt>:
   136c4:	e92d4037 	push	{r0, r1, r2, r4, r5, lr}
   136c8:	e1a05001 	mov	r5, r1
   136cc:	e28d1004 	add	r1, sp, #4
   136d0:	e1a04002 	mov	r4, r2
   136d4:	ebfffff3 	bl	136a8 <parse_arg_uint16>
   136d8:	e59d3004 	ldr	r3, [sp, #4]
   136dc:	e3530002 	cmp	r3, #2
   136e0:	03a03000 	moveq	r3, #0
   136e4:	058d3004 	streq	r3, [sp, #4]
   136e8:	e59d3004 	ldr	r3, [sp, #4]
   136ec:	01a00005 	moveq	r0, r5
   136f0:	e5843000 	str	r3, [r4]
   136f4:	e28dd00c 	add	sp, sp, #12
   136f8:	e8bd8030 	pop	{r4, r5, pc}

000136fc <cmd_l2cap_create_server>:
   136fc:	e92d41f3 	push	{r0, r1, r4, r5, r6, r7, r8, lr}
   13700:	e2811004 	add	r1, r1, #4
   13704:	e2400001 	sub	r0, r0, #1
   13708:	ebfffd95 	bl	12d64 <parse_arg_all>
   1370c:	e3500000 	cmp	r0, #0
   13710:	e1a04000 	mov	r4, r0
   13714:	e58d0000 	str	r0, [sp]
   13718:	1a000049 	bne	13844 <cmd_l2cap_create_server+0x148>
   1371c:	e59f0144 	ldr	r0, [pc, #324]	; 13868 <cmd_l2cap_create_server+0x16c>
   13720:	e1a0600d 	mov	r6, sp
   13724:	e1a01006 	mov	r1, r6
   13728:	e08f0000 	add	r0, pc, r0
   1372c:	ebffffdd 	bl	136a8 <parse_arg_uint16>
   13730:	e59d4000 	ldr	r4, [sp]
   13734:	e3540000 	cmp	r4, #0
   13738:	e1a07000 	mov	r7, r0
   1373c:	0a000004 	beq	13754 <cmd_l2cap_create_server+0x58>
   13740:	e59f0124 	ldr	r0, [pc, #292]	; 1386c <cmd_l2cap_create_server+0x170>
   13744:	e08f0000 	add	r0, pc, r0
   13748:	ebfff890 	bl	11990 <puts@plt>
   1374c:	e59d4000 	ldr	r4, [sp]
   13750:	ea00003b 	b	13844 <cmd_l2cap_create_server+0x148>
   13754:	e59f0114 	ldr	r0, [pc, #276]	; 13870 <cmd_l2cap_create_server+0x174>
   13758:	e28d1004 	add	r1, sp, #4
   1375c:	e08f0000 	add	r0, pc, r0
   13760:	ebfffdfc 	bl	12f58 <parse_arg_uint32>
   13764:	e59d3004 	ldr	r3, [sp, #4]
   13768:	e3530002 	cmp	r3, #2
   1376c:	058d4004 	streq	r4, [sp, #4]
   13770:	e59d1004 	ldr	r1, [sp, #4]
   13774:	e58d1000 	str	r1, [sp]
   13778:	e1a05000 	mov	r5, r0
   1377c:	01a05004 	moveq	r5, r4
   13780:	e3510000 	cmp	r1, #0
   13784:	159f00e8 	ldrne	r0, [pc, #232]	; 13874 <ble_att_clt.c.e371e93c+0x1>
   13788:	108f0000 	addne	r0, pc, r0
   1378c:	1affffed 	bne	13748 <cmd_l2cap_create_server+0x4c>
   13790:	e59f00e0 	ldr	r0, [pc, #224]	; 13878 <ble_att_clt.c.e371e93c+0x5>
   13794:	e1a02006 	mov	r2, r6
   13798:	e08f0000 	add	r0, pc, r0
   1379c:	ebffffc8 	bl	136c4 <parse_arg_uint16_dflt>
   137a0:	e59d4000 	ldr	r4, [sp]
   137a4:	e3540000 	cmp	r4, #0
   137a8:	e1a06000 	mov	r6, r0
   137ac:	159f00c8 	ldrne	r0, [pc, #200]	; 1387c <ble_att_clt.c.e371e93c+0x9>
   137b0:	108f0000 	addne	r0, pc, r0
   137b4:	1affffe3 	bne	13748 <cmd_l2cap_create_server+0x4c>
   137b8:	e2455001 	sub	r5, r5, #1
   137bc:	e3550002 	cmp	r5, #2
   137c0:	81a08004 	movhi	r8, r4
   137c4:	959f30b4 	ldrls	r3, [pc, #180]	; 13880 <ble_att_clt.c.e371e93c+0xd>
   137c8:	908f3003 	addls	r3, pc, r3
   137cc:	919380d5 	ldrsbls	r8, [r3, r5]
   137d0:	e2463001 	sub	r3, r6, #1
   137d4:	e59f50a8 	ldr	r5, [pc, #168]	; 13884 <ble_att_clt.c.e371e93c+0x11>
   137d8:	e6ff3073 	uxth	r3, r3
   137dc:	e08f5005 	add	r5, pc, r5
   137e0:	e3530c01 	cmp	r3, #256	; 0x100
   137e4:	e28500b8 	add	r0, r5, #184	; 0xb8
   137e8:	23a06c01 	movcs	r6, #256	; 0x100
   137ec:	eb00394a 	bl	21d1c <os_memblock_get>
   137f0:	e3500000 	cmp	r0, #0
   137f4:	0a000015 	beq	13850 <cmd_l2cap_create_server+0x154>
   137f8:	e59f2088 	ldr	r2, [pc, #136]	; 13888 <ble_att_clt.c.e371e93c+0x15>
   137fc:	e3a03000 	mov	r3, #0
   13800:	e5803000 	str	r3, [r0]
   13804:	e08f2002 	add	r2, pc, r2
   13808:	e5802008 	str	r2, [r0, #8]
   1380c:	e59520d4 	ldr	r2, [r5, #212]	; 0xd4
   13810:	e1c070b4 	strh	r7, [r0, #4]
   13814:	e1520003 	cmp	r2, r3
   13818:	e1c060b6 	strh	r6, [r0, #6]
   1381c:	e5802000 	str	r2, [r0]
   13820:	e59f2064 	ldr	r2, [pc, #100]	; 1388c <ble_att_clt.c.e371e93c+0x19>
   13824:	e580800c 	str	r8, [r0, #12]
   13828:	e08f2002 	add	r2, pc, r2
   1382c:	058500d8 	streq	r0, [r5, #216]	; 0xd8
   13830:	e58d3000 	str	r3, [sp]
   13834:	e58200d4 	str	r0, [r2, #212]	; 0xd4
   13838:	e59f0050 	ldr	r0, [pc, #80]	; 13890 <ble_att_clt.c.e371e93c+0x1d>
   1383c:	e08f0000 	add	r0, pc, r0
   13840:	ebfff852 	bl	11990 <puts@plt>
   13844:	e1a00004 	mov	r0, r4
   13848:	e28dd008 	add	sp, sp, #8
   1384c:	e8bd81f0 	pop	{r4, r5, r6, r7, r8, pc}
   13850:	e59f003c 	ldr	r0, [pc, #60]	; 13894 <ble_att_clt.c.e371e93c+0x21>
   13854:	e3a01006 	mov	r1, #6
   13858:	e58d1000 	str	r1, [sp]
   1385c:	e08f0000 	add	r0, pc, r0
   13860:	ebfff811 	bl	118ac <printf@plt>
   13864:	eaffffb8 	b	1374c <cmd_l2cap_create_server+0x50>
   13868:	00022e1c 	.word	0x00022e1c
   1386c:	00022e04 	.word	0x00022e04
   13870:	000296c9 	.word	0x000296c9
   13874:	00022dd8 	.word	0x00022dd8
   13878:	00027906 	.word	0x00027906
   1387c:	00022dca 	.word	0x00022dca
   13880:	00022958 	.word	0x00022958
   13884:	0003c0e8 	.word	0x0003c0e8
   13888:	00006fac 	.word	0x00006fac
   1388c:	0003c09c 	.word	0x0003c09c
   13890:	00022d56 	.word	0x00022d56
   13894:	00022d52 	.word	0x00022d52

00013898 <cmd_phy_read>:
   13898:	e92d40f0 	push	{r4, r5, r6, r7, lr}
   1389c:	e2811004 	add	r1, r1, #4
   138a0:	e24dd01c 	sub	sp, sp, #28
   138a4:	e2400001 	sub	r0, r0, #1
   138a8:	ebfffd2d 	bl	12d64 <parse_arg_all>
   138ac:	e3a05000 	mov	r5, #0
   138b0:	e1500005 	cmp	r0, r5
   138b4:	e1a04000 	mov	r4, r0
   138b8:	e58d0010 	str	r0, [sp, #16]
   138bc:	1a00000b 	bne	138f0 <cmd_phy_read+0x58>
   138c0:	e59f00e8 	ldr	r0, [pc, #232]	; 139b0 <cmd_phy_read+0x118>
   138c4:	e28d1010 	add	r1, sp, #16
   138c8:	e08f0000 	add	r0, pc, r0
   138cc:	ebffff75 	bl	136a8 <parse_arg_uint16>
   138d0:	e59d3010 	ldr	r3, [sp, #16]
   138d4:	e1530005 	cmp	r3, r5
   138d8:	e1a06000 	mov	r6, r0
   138dc:	0a000006 	beq	138fc <cmd_phy_read+0x64>
   138e0:	e59f00cc 	ldr	r0, [pc, #204]	; 139b4 <cmd_phy_read+0x11c>
   138e4:	e08f0000 	add	r0, pc, r0
   138e8:	ebfff828 	bl	11990 <puts@plt>
   138ec:	e59d4010 	ldr	r4, [sp, #16]
   138f0:	e1a00004 	mov	r0, r4
   138f4:	e28dd01c 	add	sp, sp, #28
   138f8:	e8bd80f0 	pop	{r4, r5, r6, r7, pc}
   138fc:	e59f30b4 	ldr	r3, [pc, #180]	; 139b8 <cmd_phy_read+0x120>
   13900:	e08f3003 	add	r3, pc, r3
   13904:	e5d340dc 	ldrb	r4, [r3, #220]	; 0xdc
   13908:	e3540002 	cmp	r4, #2
   1390c:	13a0401e 	movne	r4, #30
   13910:	1a000015 	bne	1396c <cmd_phy_read+0xd4>
   13914:	eb006173 	bl	2bee8 <ble_hs_lock_nested>
   13918:	e1a00006 	mov	r0, r6
   1391c:	eb005ef0 	bl	2b4e4 <ble_hs_conn_find>
   13920:	e1a07000 	mov	r7, r0
   13924:	eb00616b 	bl	2bed8 <ble_hs_unlock_nested>
   13928:	e3570000 	cmp	r7, #0
   1392c:	03a04007 	moveq	r4, #7
   13930:	0a00000d 	beq	1396c <cmd_phy_read+0xd4>
   13934:	e3a03004 	mov	r3, #4
   13938:	e1a02004 	mov	r2, r4
   1393c:	e58d3000 	str	r3, [sp]
   13940:	e28d100c 	add	r1, sp, #12
   13944:	e28d3014 	add	r3, sp, #20
   13948:	e3020030 	movw	r0, #8240	; 0x2030
   1394c:	e1cd60bc 	strh	r6, [sp, #12]
   13950:	eb005ceb 	bl	2ad04 <ble_hs_hci_cmd_tx>
   13954:	e2504000 	subs	r4, r0, #0
   13958:	1a000003 	bne	1396c <cmd_phy_read+0xd4>
   1395c:	e1dd31b4 	ldrh	r3, [sp, #20]
   13960:	e1530006 	cmp	r3, r6
   13964:	05dd5016 	ldrbeq	r5, [sp, #22]
   13968:	13a0400c 	movne	r4, #12
   1396c:	e3540000 	cmp	r4, #0
   13970:	e58d4010 	str	r4, [sp, #16]
   13974:	0a000004 	beq	1398c <cmd_phy_read+0xf4>
   13978:	e59f003c 	ldr	r0, [pc, #60]	; 139bc <cmd_phy_read+0x124>
   1397c:	e1a01004 	mov	r1, r4
   13980:	e08f0000 	add	r0, pc, r0
   13984:	ebfff7c8 	bl	118ac <printf@plt>
   13988:	eaffffd7 	b	138ec <cmd_phy_read+0x54>
   1398c:	e59f002c 	ldr	r0, [pc, #44]	; 139c0 <cmd_phy_read+0x128>
   13990:	e1a01005 	mov	r1, r5
   13994:	e08f0000 	add	r0, pc, r0
   13998:	ebfff7c3 	bl	118ac <printf@plt>
   1399c:	e59f0020 	ldr	r0, [pc, #32]	; 139c4 <cmd_phy_read+0x12c>
   139a0:	e1a01005 	mov	r1, r5
   139a4:	e08f0000 	add	r0, pc, r0
   139a8:	ebfff7bf 	bl	118ac <printf@plt>
   139ac:	eaffffcf 	b	138f0 <cmd_phy_read+0x58>
   139b0:	0002766f 	.word	0x0002766f
   139b4:	00022ce7 	.word	0x00022ce7
   139b8:	0003bfc4 	.word	0x0003bfc4
   139bc:	00022c64 	.word	0x00022c64
   139c0:	00022c6e 	.word	0x00022c6e
   139c4:	00022c6a 	.word	0x00022c6a

000139c8 <cmd_conn_datalen>:
   139c8:	e92d4070 	push	{r4, r5, r6, lr}
   139cc:	e2811004 	add	r1, r1, #4
   139d0:	e24dd018 	sub	sp, sp, #24
   139d4:	e2400001 	sub	r0, r0, #1
   139d8:	ebfffce1 	bl	12d64 <parse_arg_all>
   139dc:	e3500000 	cmp	r0, #0
   139e0:	e58d000c 	str	r0, [sp, #12]
   139e4:	1a00000c 	bne	13a1c <cmd_conn_datalen+0x54>
   139e8:	e28d400c 	add	r4, sp, #12
   139ec:	e59f0100 	ldr	r0, [pc, #256]	; 13af4 <cmd_conn_datalen+0x12c>
   139f0:	e1a01004 	mov	r1, r4
   139f4:	e08f0000 	add	r0, pc, r0
   139f8:	ebffff2a 	bl	136a8 <parse_arg_uint16>
   139fc:	e59d300c 	ldr	r3, [sp, #12]
   13a00:	e3530000 	cmp	r3, #0
   13a04:	e1a05000 	mov	r5, r0
   13a08:	0a000005 	beq	13a24 <cmd_conn_datalen+0x5c>
   13a0c:	e59f00e4 	ldr	r0, [pc, #228]	; 13af8 <cmd_conn_datalen+0x130>
   13a10:	e08f0000 	add	r0, pc, r0
   13a14:	ebfff7dd 	bl	11990 <puts@plt>
   13a18:	e59d000c 	ldr	r0, [sp, #12]
   13a1c:	e28dd018 	add	sp, sp, #24
   13a20:	e8bd8070 	pop	{r4, r5, r6, pc}
   13a24:	e59f00d0 	ldr	r0, [pc, #208]	; 13afc <cmd_conn_datalen+0x134>
   13a28:	e1a01004 	mov	r1, r4
   13a2c:	e08f0000 	add	r0, pc, r0
   13a30:	ebffff1c 	bl	136a8 <parse_arg_uint16>
   13a34:	e59d300c 	ldr	r3, [sp, #12]
   13a38:	e3530000 	cmp	r3, #0
   13a3c:	e1a06000 	mov	r6, r0
   13a40:	159f00b8 	ldrne	r0, [pc, #184]	; 13b00 <cmd_conn_datalen+0x138>
   13a44:	108f0000 	addne	r0, pc, r0
   13a48:	1afffff1 	bne	13a14 <cmd_conn_datalen+0x4c>
   13a4c:	e59f00b0 	ldr	r0, [pc, #176]	; 13b04 <cmd_conn_datalen+0x13c>
   13a50:	e1a01004 	mov	r1, r4
   13a54:	e08f0000 	add	r0, pc, r0
   13a58:	ebffff12 	bl	136a8 <parse_arg_uint16>
   13a5c:	e59d300c 	ldr	r3, [sp, #12]
   13a60:	e3530000 	cmp	r3, #0
   13a64:	159f009c 	ldrne	r0, [pc, #156]	; 13b08 <cmd_conn_datalen+0x140>
   13a68:	108f0000 	addne	r0, pc, r0
   13a6c:	1affffe8 	bne	13a14 <cmd_conn_datalen+0x4c>
   13a70:	e246301b 	sub	r3, r6, #27
   13a74:	e6ff3073 	uxth	r3, r3
   13a78:	e35300e0 	cmp	r3, #224	; 0xe0
   13a7c:	9a000006 	bls	13a9c <cmd_conn_datalen+0xd4>
   13a80:	e3a00003 	mov	r0, #3
   13a84:	e58d000c 	str	r0, [sp, #12]
   13a88:	e1a01000 	mov	r1, r0
   13a8c:	e59f0078 	ldr	r0, [pc, #120]	; 13b0c <cmd_conn_datalen+0x144>
   13a90:	e08f0000 	add	r0, pc, r0
   13a94:	ebfff784 	bl	118ac <printf@plt>
   13a98:	eaffffde 	b	13a18 <cmd_conn_datalen+0x50>
   13a9c:	e2403f52 	sub	r3, r0, #328	; 0x148
   13aa0:	e3042148 	movw	r2, #16712	; 0x4148
   13aa4:	e6ff3073 	uxth	r3, r3
   13aa8:	e1530002 	cmp	r3, r2
   13aac:	8afffff3 	bhi	13a80 <cmd_conn_datalen+0xb8>
   13ab0:	e1cd01b4 	strh	r0, [sp, #20]
   13ab4:	e3a03002 	mov	r3, #2
   13ab8:	e3a02006 	mov	r2, #6
   13abc:	e58d3000 	str	r3, [sp]
   13ac0:	e28d1010 	add	r1, sp, #16
   13ac4:	e28d3008 	add	r3, sp, #8
   13ac8:	e3020022 	movw	r0, #8226	; 0x2022
   13acc:	e1cd51b0 	strh	r5, [sp, #16]
   13ad0:	e1cd61b2 	strh	r6, [sp, #18]
   13ad4:	eb005c8a 	bl	2ad04 <ble_hs_hci_cmd_tx>
   13ad8:	e3500000 	cmp	r0, #0
   13adc:	1affffe8 	bne	13a84 <cmd_conn_datalen+0xbc>
   13ae0:	e1dd30b8 	ldrh	r3, [sp, #8]
   13ae4:	e1530005 	cmp	r3, r5
   13ae8:	0affffcb 	beq	13a1c <cmd_conn_datalen+0x54>
   13aec:	e3a0000c 	mov	r0, #12
   13af0:	eaffffe3 	b	13a84 <cmd_conn_datalen+0xbc>
   13af4:	00027543 	.word	0x00027543
   13af8:	00022bbb 	.word	0x00022bbb
   13afc:	00025f53 	.word	0x00025f53
   13b00:	00022bd6 	.word	0x00022bd6
   13b04:	00022be1 	.word	0x00022be1
   13b08:	00022bd2 	.word	0x00022bd2
   13b0c:	00022bc3 	.word	0x00022bc3

00013b10 <cmd_conn_rssi>:
   13b10:	e92d4030 	push	{r4, r5, lr}
   13b14:	e2811004 	add	r1, r1, #4
   13b18:	e24dd01c 	sub	sp, sp, #28
   13b1c:	e2400001 	sub	r0, r0, #1
   13b20:	ebfffc8f 	bl	12d64 <parse_arg_all>
   13b24:	e3500000 	cmp	r0, #0
   13b28:	e1a04000 	mov	r4, r0
   13b2c:	e58d0014 	str	r0, [sp, #20]
   13b30:	1a000022 	bne	13bc0 <cmd_conn_rssi+0xb0>
   13b34:	e59f00b4 	ldr	r0, [pc, #180]	; 13bf0 <cmd_conn_rssi+0xe0>
   13b38:	e28d1014 	add	r1, sp, #20
   13b3c:	e08f0000 	add	r0, pc, r0
   13b40:	ebfffed8 	bl	136a8 <parse_arg_uint16>
   13b44:	e59d3014 	ldr	r3, [sp, #20]
   13b48:	e3530000 	cmp	r3, #0
   13b4c:	e1a05000 	mov	r5, r0
   13b50:	0a000004 	beq	13b68 <cmd_conn_rssi+0x58>
   13b54:	e59f0098 	ldr	r0, [pc, #152]	; 13bf4 <cmd_conn_rssi+0xe4>
   13b58:	e08f0000 	add	r0, pc, r0
   13b5c:	ebfff78b 	bl	11990 <puts@plt>
   13b60:	e59d4014 	ldr	r4, [sp, #20]
   13b64:	ea000015 	b	13bc0 <cmd_conn_rssi+0xb0>
   13b68:	e59f3088 	ldr	r3, [pc, #136]	; 13bf8 <cmd_conn_rssi+0xe8>
   13b6c:	e08f3003 	add	r3, pc, r3
   13b70:	e5d320dc 	ldrb	r2, [r3, #220]	; 0xdc
   13b74:	e3520002 	cmp	r2, #2
   13b78:	1a00001a 	bne	13be8 <cmd_conn_rssi+0xd8>
   13b7c:	e1cd00bc 	strh	r0, [sp, #12]
   13b80:	e3a03003 	mov	r3, #3
   13b84:	e28d100c 	add	r1, sp, #12
   13b88:	e58d3000 	str	r3, [sp]
   13b8c:	e3010405 	movw	r0, #5125	; 0x1405
   13b90:	e28d3010 	add	r3, sp, #16
   13b94:	eb005c5a 	bl	2ad04 <ble_hs_hci_cmd_tx>
   13b98:	e2504000 	subs	r4, r0, #0
   13b9c:	1a00000b 	bne	13bd0 <cmd_conn_rssi+0xc0>
   13ba0:	e1dd11b0 	ldrh	r1, [sp, #16]
   13ba4:	e1510005 	cmp	r1, r5
   13ba8:	1a000007 	bne	13bcc <cmd_conn_rssi+0xbc>
   13bac:	e59f0048 	ldr	r0, [pc, #72]	; 13bfc <cmd_conn_rssi+0xec>
   13bb0:	e1dd21d2 	ldrsb	r2, [sp, #18]
   13bb4:	e08f0000 	add	r0, pc, r0
   13bb8:	e58d4014 	str	r4, [sp, #20]
   13bbc:	ebfff73a 	bl	118ac <printf@plt>
   13bc0:	e1a00004 	mov	r0, r4
   13bc4:	e28dd01c 	add	sp, sp, #28
   13bc8:	e8bd8030 	pop	{r4, r5, pc}
   13bcc:	e3a0400c 	mov	r4, #12
   13bd0:	e59f0028 	ldr	r0, [pc, #40]	; 13c00 <cmd_conn_rssi+0xf0>
   13bd4:	e1a01004 	mov	r1, r4
   13bd8:	e58d4014 	str	r4, [sp, #20]
   13bdc:	e08f0000 	add	r0, pc, r0
   13be0:	ebfff731 	bl	118ac <printf@plt>
   13be4:	eaffffdd 	b	13b60 <cmd_conn_rssi+0x50>
   13be8:	e3a0401e 	mov	r4, #30
   13bec:	eafffff7 	b	13bd0 <cmd_conn_rssi+0xc0>
   13bf0:	000273fb 	.word	0x000273fb
   13bf4:	00022a73 	.word	0x00022a73
   13bf8:	0003bd58 	.word	0x0003bd58
   13bfc:	00022ac1 	.word	0x00022ac1
   13c00:	00022aaa 	.word	0x00022aaa

00013c04 <cmd_parse_conn_start_end>:
   13c04:	e92d40f7 	push	{r0, r1, r2, r4, r5, r6, r7, lr}
   13c08:	e1a07000 	mov	r7, r0
   13c0c:	e28d4004 	add	r4, sp, #4
   13c10:	e59f0060 	ldr	r0, [pc, #96]	; 13c78 <cmd_parse_conn_start_end+0x74>
   13c14:	e1a06001 	mov	r6, r1
   13c18:	e1a05002 	mov	r5, r2
   13c1c:	e1a01004 	mov	r1, r4
   13c20:	e08f0000 	add	r0, pc, r0
   13c24:	ebfffe9f 	bl	136a8 <parse_arg_uint16>
   13c28:	e1c700b0 	strh	r0, [r7]
   13c2c:	e59d0004 	ldr	r0, [sp, #4]
   13c30:	e3500000 	cmp	r0, #0
   13c34:	1a00000d 	bne	13c70 <cmd_parse_conn_start_end+0x6c>
   13c38:	e59f003c 	ldr	r0, [pc, #60]	; 13c7c <cmd_parse_conn_start_end+0x78>
   13c3c:	e1a01004 	mov	r1, r4
   13c40:	e08f0000 	add	r0, pc, r0
   13c44:	ebfffe97 	bl	136a8 <parse_arg_uint16>
   13c48:	e1c600b0 	strh	r0, [r6]
   13c4c:	e59d0004 	ldr	r0, [sp, #4]
   13c50:	e3500000 	cmp	r0, #0
   13c54:	1a000005 	bne	13c70 <cmd_parse_conn_start_end+0x6c>
   13c58:	e59f0020 	ldr	r0, [pc, #32]	; 13c80 <cmd_parse_conn_start_end+0x7c>
   13c5c:	e1a01004 	mov	r1, r4
   13c60:	e08f0000 	add	r0, pc, r0
   13c64:	ebfffe8f 	bl	136a8 <parse_arg_uint16>
   13c68:	e1c500b0 	strh	r0, [r5]
   13c6c:	e59d0004 	ldr	r0, [sp, #4]
   13c70:	e28dd00c 	add	sp, sp, #12
   13c74:	e8bd80f0 	pop	{r4, r5, r6, r7, pc}
   13c78:	00027317 	.word	0x00027317
   13c7c:	00026b64 	.word	0x00026b64
   13c80:	0002750a 	.word	0x0002750a

00013c84 <parse_arg_uint8>:
   13c84:	e1a03001 	mov	r3, r1
   13c88:	e3a020ff 	mov	r2, #255	; 0xff
   13c8c:	e92d4010 	push	{r4, lr}
   13c90:	e3a01000 	mov	r1, #0
   13c94:	ebfffe65 	bl	13630 <parse_arg_long_bounds>
   13c98:	e6ef0070 	uxtb	r0, r0
   13c9c:	e8bd8010 	pop	{r4, pc}

00013ca0 <cmd_set_adv_data_or_scan_rsp.constprop.6>:
   13ca0:	e92d4ff0 	push	{r4, r5, r6, r7, r8, r9, sl, fp, lr}
   13ca4:	e3a04000 	mov	r4, #0
   13ca8:	e24dd0b4 	sub	sp, sp, #180	; 0xb4
   13cac:	e1a06000 	mov	r6, r0
   13cb0:	e1a08001 	mov	r8, r1
   13cb4:	e1a07002 	mov	r7, r2
   13cb8:	e1a01004 	mov	r1, r4
   13cbc:	e3a02060 	mov	r2, #96	; 0x60
   13cc0:	e28d0050 	add	r0, sp, #80	; 0x50
   13cc4:	e58d4000 	str	r4, [sp]
   13cc8:	ebfff6a0 	bl	11750 <memset@plt>
   13ccc:	e2881004 	add	r1, r8, #4
   13cd0:	e2460001 	sub	r0, r6, #1
   13cd4:	ebfffc22 	bl	12d64 <parse_arg_all>
   13cd8:	e1500004 	cmp	r0, r4
   13cdc:	e58d0020 	str	r0, [sp, #32]
   13ce0:	1a000022 	bne	13d70 <cmd_set_adv_data_or_scan_rsp.constprop.6+0xd0>
   13ce4:	e28d6020 	add	r6, sp, #32
   13ce8:	e59f083c 	ldr	r0, [pc, #2108]	; 1452c <cmd_set_adv_data_or_scan_rsp.constprop.6+0x88c>
   13cec:	e1a05004 	mov	r5, r4
   13cf0:	e1a01006 	mov	r1, r6
   13cf4:	e08f0000 	add	r0, pc, r0
   13cf8:	ebffffe1 	bl	13c84 <parse_arg_uint8>
   13cfc:	e59d3020 	ldr	r3, [sp, #32]
   13d00:	e1530004 	cmp	r3, r4
   13d04:	05cd0050 	strbeq	r0, [sp, #80]	; 0x50
   13d08:	0a000006 	beq	13d28 <cmd_set_adv_data_or_scan_rsp.constprop.6+0x88>
   13d0c:	e3530002 	cmp	r3, #2
   13d10:	0a000004 	beq	13d28 <cmd_set_adv_data_or_scan_rsp.constprop.6+0x88>
   13d14:	e59f0814 	ldr	r0, [pc, #2068]	; 14530 <cmd_set_adv_data_or_scan_rsp.constprop.6+0x890>
   13d18:	e08f0000 	add	r0, pc, r0
   13d1c:	ebfff71b 	bl	11990 <puts@plt>
   13d20:	e59d0020 	ldr	r0, [sp, #32]
   13d24:	ea000011 	b	13d70 <cmd_set_adv_data_or_scan_rsp.constprop.6+0xd0>
   13d28:	e59fa804 	ldr	sl, [pc, #2052]	; 14534 <cmd_set_adv_data_or_scan_rsp.constprop.6+0x894>
   13d2c:	e3a08010 	mov	r8, #16
   13d30:	e59f9800 	ldr	r9, [pc, #2048]	; 14538 <cmd_set_adv_data_or_scan_rsp.constprop.6+0x898>
   13d34:	e08fa00a 	add	sl, pc, sl
   13d38:	e08f9009 	add	r9, pc, r9
   13d3c:	e1a01006 	mov	r1, r6
   13d40:	e1a0000a 	mov	r0, sl
   13d44:	ebfffe57 	bl	136a8 <parse_arg_uint16>
   13d48:	e59d3020 	ldr	r3, [sp, #32]
   13d4c:	e3530000 	cmp	r3, #0
   13d50:	1a00000e 	bne	13d90 <cmd_set_adv_data_or_scan_rsp.constprop.6+0xf0>
   13d54:	e5dd3058 	ldrb	r3, [sp, #88]	; 0x58
   13d58:	e3530007 	cmp	r3, #7
   13d5c:	9a000005 	bls	13d78 <cmd_set_adv_data_or_scan_rsp.constprop.6+0xd8>
   13d60:	e59f07d4 	ldr	r0, [pc, #2004]	; 1453c <cmd_set_adv_data_or_scan_rsp.constprop.6+0x89c>
   13d64:	e08f0000 	add	r0, pc, r0
   13d68:	ebfff708 	bl	11990 <puts@plt>
   13d6c:	e3a00016 	mov	r0, #22
   13d70:	e28dd0b4 	add	sp, sp, #180	; 0xb4
   13d74:	e8bd8ff0 	pop	{r4, r5, r6, r7, r8, r9, sl, fp, pc}
   13d78:	e0892103 	add	r2, r9, r3, lsl #2
   13d7c:	e2833001 	add	r3, r3, #1
   13d80:	e5cd3058 	strb	r3, [sp, #88]	; 0x58
   13d84:	e5c280de 	strb	r8, [r2, #222]	; 0xde
   13d88:	e1c20eb0 	strh	r0, [r2, #224]	; 0xe0
   13d8c:	eaffffea 	b	13d3c <cmd_set_adv_data_or_scan_rsp.constprop.6+0x9c>
   13d90:	e3530002 	cmp	r3, #2
   13d94:	159f07a4 	ldrne	r0, [pc, #1956]	; 14540 <cmd_set_adv_data_or_scan_rsp.constprop.6+0x8a0>
   13d98:	108f0000 	addne	r0, pc, r0
   13d9c:	1affffde 	bne	13d1c <cmd_set_adv_data_or_scan_rsp.constprop.6+0x7c>
   13da0:	e5dd3058 	ldrb	r3, [sp, #88]	; 0x58
   13da4:	e3530000 	cmp	r3, #0
   13da8:	0a000003 	beq	13dbc <cmd_set_adv_data_or_scan_rsp.constprop.6+0x11c>
   13dac:	e59f3790 	ldr	r3, [pc, #1936]	; 14544 <cmd_set_adv_data_or_scan_rsp.constprop.6+0x8a4>
   13db0:	e08f3003 	add	r3, pc, r3
   13db4:	e28330de 	add	r3, r3, #222	; 0xde
   13db8:	e58d3054 	str	r3, [sp, #84]	; 0x54
   13dbc:	e59f0784 	ldr	r0, [pc, #1924]	; 14548 <cmd_set_adv_data_or_scan_rsp.constprop.6+0x8a8>
   13dc0:	e1a01006 	mov	r1, r6
   13dc4:	e08f0000 	add	r0, pc, r0
   13dc8:	ebfffe27 	bl	1366c <parse_arg_bool_dflt.constprop.7>
   13dcc:	e59d3020 	ldr	r3, [sp, #32]
   13dd0:	e3530000 	cmp	r3, #0
   13dd4:	1a000010 	bne	13e1c <cmd_set_adv_data_or_scan_rsp.constprop.6+0x17c>
   13dd8:	e59fa76c 	ldr	sl, [pc, #1900]	; 1454c <cmd_set_adv_data_or_scan_rsp.constprop.6+0x8ac>
   13ddc:	e3a08020 	mov	r8, #32
   13de0:	e59f9768 	ldr	r9, [pc, #1896]	; 14550 <cmd_set_adv_data_or_scan_rsp.constprop.6+0x8b0>
   13de4:	e08fa00a 	add	sl, pc, sl
   13de8:	e08f9009 	add	r9, pc, r9
   13dec:	e1a01006 	mov	r1, r6
   13df0:	e1a0000a 	mov	r0, sl
   13df4:	ebfffc57 	bl	12f58 <parse_arg_uint32>
   13df8:	e59d3020 	ldr	r3, [sp, #32]
   13dfc:	e3530000 	cmp	r3, #0
   13e00:	1a00000e 	bne	13e40 <cmd_set_adv_data_or_scan_rsp.constprop.6+0x1a0>
   13e04:	e5dd3060 	ldrb	r3, [sp, #96]	; 0x60
   13e08:	e3530007 	cmp	r3, #7
   13e0c:	9a000005 	bls	13e28 <cmd_set_adv_data_or_scan_rsp.constprop.6+0x188>
   13e10:	e59f073c 	ldr	r0, [pc, #1852]	; 14554 <cmd_set_adv_data_or_scan_rsp.constprop.6+0x8b4>
   13e14:	e08f0000 	add	r0, pc, r0
   13e18:	eaffffd2 	b	13d68 <cmd_set_adv_data_or_scan_rsp.constprop.6+0xc8>
   13e1c:	e59f0734 	ldr	r0, [pc, #1844]	; 14558 <cmd_set_adv_data_or_scan_rsp.constprop.6+0x8b8>
   13e20:	e08f0000 	add	r0, pc, r0
   13e24:	eaffffbc 	b	13d1c <cmd_set_adv_data_or_scan_rsp.constprop.6+0x7c>
   13e28:	e0892183 	add	r2, r9, r3, lsl #3
   13e2c:	e2833001 	add	r3, r3, #1
   13e30:	e5cd3060 	strb	r3, [sp, #96]	; 0x60
   13e34:	e5c28100 	strb	r8, [r2, #256]	; 0x100
   13e38:	e5820104 	str	r0, [r2, #260]	; 0x104
   13e3c:	eaffffea 	b	13dec <cmd_set_adv_data_or_scan_rsp.constprop.6+0x14c>
   13e40:	e3530002 	cmp	r3, #2
   13e44:	159f0710 	ldrne	r0, [pc, #1808]	; 1455c <cmd_set_adv_data_or_scan_rsp.constprop.6+0x8bc>
   13e48:	108f0000 	addne	r0, pc, r0
   13e4c:	1affffb2 	bne	13d1c <cmd_set_adv_data_or_scan_rsp.constprop.6+0x7c>
   13e50:	e5dd3060 	ldrb	r3, [sp, #96]	; 0x60
   13e54:	e3530000 	cmp	r3, #0
   13e58:	0a000003 	beq	13e6c <cmd_set_adv_data_or_scan_rsp.constprop.6+0x1cc>
   13e5c:	e59f36fc 	ldr	r3, [pc, #1788]	; 14560 <cmd_set_adv_data_or_scan_rsp.constprop.6+0x8c0>
   13e60:	e08f3003 	add	r3, pc, r3
   13e64:	e2833c01 	add	r3, r3, #256	; 0x100
   13e68:	e58d305c 	str	r3, [sp, #92]	; 0x5c
   13e6c:	e59f06f0 	ldr	r0, [pc, #1776]	; 14564 <cmd_set_adv_data_or_scan_rsp.constprop.6+0x8c4>
   13e70:	e1a01006 	mov	r1, r6
   13e74:	e08f0000 	add	r0, pc, r0
   13e78:	ebfffdfb 	bl	1366c <parse_arg_bool_dflt.constprop.7>
   13e7c:	e59d3020 	ldr	r3, [sp, #32]
   13e80:	e3530000 	cmp	r3, #0
   13e84:	1a000012 	bne	13ed4 <cmd_set_adv_data_or_scan_rsp.constprop.6+0x234>
   13e88:	e59f86d8 	ldr	r8, [pc, #1752]	; 14568 <cmd_set_adv_data_or_scan_rsp.constprop.6+0x8c8>
   13e8c:	e59f96d8 	ldr	r9, [pc, #1752]	; 1456c <cmd_set_adv_data_or_scan_rsp.constprop.6+0x8cc>
   13e90:	e08f8008 	add	r8, pc, r8
   13e94:	e08f9009 	add	r9, pc, r9
   13e98:	e2888d05 	add	r8, r8, #320	; 0x140
   13e9c:	e28da02c 	add	sl, sp, #44	; 0x2c
   13ea0:	e3a02010 	mov	r2, #16
   13ea4:	e1a00009 	mov	r0, r9
   13ea8:	e1a0100a 	mov	r1, sl
   13eac:	ebfffc64 	bl	13044 <parse_arg_byte_stream_exact_length>
   13eb0:	e3500000 	cmp	r0, #0
   13eb4:	e58d0020 	str	r0, [sp, #32]
   13eb8:	1a000011 	bne	13f04 <cmd_set_adv_data_or_scan_rsp.constprop.6+0x264>
   13ebc:	e5dd0068 	ldrb	r0, [sp, #104]	; 0x68
   13ec0:	e3500001 	cmp	r0, #1
   13ec4:	9a000005 	bls	13ee0 <cmd_set_adv_data_or_scan_rsp.constprop.6+0x240>
   13ec8:	e59f06a0 	ldr	r0, [pc, #1696]	; 14570 <cmd_set_adv_data_or_scan_rsp.constprop.6+0x8d0>
   13ecc:	e08f0000 	add	r0, pc, r0
   13ed0:	eaffffa4 	b	13d68 <cmd_set_adv_data_or_scan_rsp.constprop.6+0xc8>
   13ed4:	e59f0698 	ldr	r0, [pc, #1688]	; 14574 <cmd_set_adv_data_or_scan_rsp.constprop.6+0x8d4>
   13ed8:	e08f0000 	add	r0, pc, r0
   13edc:	eaffff8e 	b	13d1c <cmd_set_adv_data_or_scan_rsp.constprop.6+0x7c>
   13ee0:	e0800200 	add	r0, r0, r0, lsl #4
   13ee4:	e3a02010 	mov	r2, #16
   13ee8:	e1a0100a 	mov	r1, sl
   13eec:	e0880000 	add	r0, r8, r0
   13ef0:	eb0040ae 	bl	241b0 <ble_uuid_init_from_buf>
   13ef4:	e5dd3068 	ldrb	r3, [sp, #104]	; 0x68
   13ef8:	e2833001 	add	r3, r3, #1
   13efc:	e5cd3068 	strb	r3, [sp, #104]	; 0x68
   13f00:	eaffffe5 	b	13e9c <cmd_set_adv_data_or_scan_rsp.constprop.6+0x1fc>
   13f04:	e3500002 	cmp	r0, #2
   13f08:	159f0668 	ldrne	r0, [pc, #1640]	; 14578 <cmd_set_adv_data_or_scan_rsp.constprop.6+0x8d8>
   13f0c:	108f0000 	addne	r0, pc, r0
   13f10:	1affff81 	bne	13d1c <cmd_set_adv_data_or_scan_rsp.constprop.6+0x7c>
   13f14:	e5dd3068 	ldrb	r3, [sp, #104]	; 0x68
   13f18:	e3530000 	cmp	r3, #0
   13f1c:	0a000003 	beq	13f30 <cmd_set_adv_data_or_scan_rsp.constprop.6+0x290>
   13f20:	e59f3654 	ldr	r3, [pc, #1620]	; 1457c <cmd_set_adv_data_or_scan_rsp.constprop.6+0x8dc>
   13f24:	e08f3003 	add	r3, pc, r3
   13f28:	e2833d05 	add	r3, r3, #320	; 0x140
   13f2c:	e58d3064 	str	r3, [sp, #100]	; 0x64
   13f30:	e59f0648 	ldr	r0, [pc, #1608]	; 14580 <cmd_set_adv_data_or_scan_rsp.constprop.6+0x8e0>
   13f34:	e1a01006 	mov	r1, r6
   13f38:	e08f0000 	add	r0, pc, r0
   13f3c:	ebfffdca 	bl	1366c <parse_arg_bool_dflt.constprop.7>
   13f40:	e59d8020 	ldr	r8, [sp, #32]
   13f44:	e3580000 	cmp	r8, #0
   13f48:	159f0634 	ldrne	r0, [pc, #1588]	; 14584 <cmd_set_adv_data_or_scan_rsp.constprop.6+0x8e4>
   13f4c:	108f0000 	addne	r0, pc, r0
   13f50:	1affff71 	bne	13d1c <cmd_set_adv_data_or_scan_rsp.constprop.6+0x7c>
   13f54:	e59f062c 	ldr	r0, [pc, #1580]	; 14588 <cmd_set_adv_data_or_scan_rsp.constprop.6+0x8e8>
   13f58:	e08f0000 	add	r0, pc, r0
   13f5c:	ebfffbba 	bl	12e4c <parse_arg_extract>
   13f60:	e3500000 	cmp	r0, #0
   13f64:	e58d006c 	str	r0, [sp, #108]	; 0x6c
   13f68:	0a000001 	beq	13f74 <cmd_set_adv_data_or_scan_rsp.constprop.6+0x2d4>
   13f6c:	ebfff627 	bl	11810 <strlen@plt>
   13f70:	e5cd0070 	strb	r0, [sp, #112]	; 0x70
   13f74:	e59f0610 	ldr	r0, [pc, #1552]	; 1458c <cmd_set_adv_data_or_scan_rsp.constprop.6+0x8ec>
   13f78:	e1a03006 	mov	r3, r6
   13f7c:	e3a0207f 	mov	r2, #127	; 0x7f
   13f80:	e3e0107f 	mvn	r1, #127	; 0x7f
   13f84:	e08f0000 	add	r0, pc, r0
   13f88:	ebfffda8 	bl	13630 <parse_arg_long_bounds>
   13f8c:	e59d3020 	ldr	r3, [sp, #32]
   13f90:	e3530000 	cmp	r3, #0
   13f94:	1a000015 	bne	13ff0 <cmd_set_adv_data_or_scan_rsp.constprop.6+0x350>
   13f98:	e5dd3073 	ldrb	r3, [sp, #115]	; 0x73
   13f9c:	e5cd0072 	strb	r0, [sp, #114]	; 0x72
   13fa0:	e3833001 	orr	r3, r3, #1
   13fa4:	e5cd3073 	strb	r3, [sp, #115]	; 0x73
   13fa8:	e59f95e0 	ldr	r9, [pc, #1504]	; 14590 <cmd_set_adv_data_or_scan_rsp.constprop.6+0x8f0>
   13fac:	e3a02004 	mov	r2, #4
   13fb0:	e59f05dc 	ldr	r0, [pc, #1500]	; 14594 <cmd_set_adv_data_or_scan_rsp.constprop.6+0x8f4>
   13fb4:	e08f9009 	add	r9, pc, r9
   13fb8:	e2899e16 	add	r9, r9, #352	; 0x160
   13fbc:	e08f0000 	add	r0, pc, r0
   13fc0:	e2899002 	add	r9, r9, #2
   13fc4:	e1a01009 	mov	r1, r9
   13fc8:	ebfffc1d 	bl	13044 <parse_arg_byte_stream_exact_length>
   13fcc:	e3500000 	cmp	r0, #0
   13fd0:	e58d0020 	str	r0, [sp, #32]
   13fd4:	058d9074 	streq	r9, [sp, #116]	; 0x74
   13fd8:	0a000009 	beq	14004 <cmd_set_adv_data_or_scan_rsp.constprop.6+0x364>
   13fdc:	e3500002 	cmp	r0, #2
   13fe0:	0a000007 	beq	14004 <cmd_set_adv_data_or_scan_rsp.constprop.6+0x364>
   13fe4:	e59f05ac 	ldr	r0, [pc, #1452]	; 14598 <cmd_set_adv_data_or_scan_rsp.constprop.6+0x8f8>
   13fe8:	e08f0000 	add	r0, pc, r0
   13fec:	eaffff4a 	b	13d1c <cmd_set_adv_data_or_scan_rsp.constprop.6+0x7c>
   13ff0:	e3530002 	cmp	r3, #2
   13ff4:	0affffeb 	beq	13fa8 <cmd_set_adv_data_or_scan_rsp.constprop.6+0x308>
   13ff8:	e59f059c 	ldr	r0, [pc, #1436]	; 1459c <cmd_set_adv_data_or_scan_rsp.constprop.6+0x8fc>
   13ffc:	e08f0000 	add	r0, pc, r0
   14000:	eaffff45 	b	13d1c <cmd_set_adv_data_or_scan_rsp.constprop.6+0x7c>
   14004:	e59f9594 	ldr	r9, [pc, #1428]	; 145a0 <cmd_set_adv_data_or_scan_rsp.constprop.6+0x900>
   14008:	e28d300c 	add	r3, sp, #12
   1400c:	e59f0590 	ldr	r0, [pc, #1424]	; 145a4 <cmd_set_adv_data_or_scan_rsp.constprop.6+0x904>
   14010:	e3a0101d 	mov	r1, #29
   14014:	e08f9009 	add	r9, pc, r9
   14018:	e2899f59 	add	r9, r9, #356	; 0x164
   1401c:	e08f0000 	add	r0, pc, r0
   14020:	e2899002 	add	r9, r9, #2
   14024:	e1a02009 	mov	r2, r9
   14028:	ebfffbd1 	bl	12f74 <parse_arg_byte_stream>
   1402c:	e3500000 	cmp	r0, #0
   14030:	e58d0020 	str	r0, [sp, #32]
   14034:	058d9078 	streq	r9, [sp, #120]	; 0x78
   14038:	059d300c 	ldreq	r3, [sp, #12]
   1403c:	05cd307c 	strbeq	r3, [sp, #124]	; 0x7c
   14040:	0a000003 	beq	14054 <cmd_set_adv_data_or_scan_rsp.constprop.6+0x3b4>
   14044:	e3500002 	cmp	r0, #2
   14048:	159f0558 	ldrne	r0, [pc, #1368]	; 145a8 <cmd_set_adv_data_or_scan_rsp.constprop.6+0x908>
   1404c:	108f0000 	addne	r0, pc, r0
   14050:	1affff31 	bne	13d1c <cmd_set_adv_data_or_scan_rsp.constprop.6+0x7c>
   14054:	e59fb550 	ldr	fp, [pc, #1360]	; 145ac <cmd_set_adv_data_or_scan_rsp.constprop.6+0x90c>
   14058:	e28d9024 	add	r9, sp, #36	; 0x24
   1405c:	e59fa54c 	ldr	sl, [pc, #1356]	; 145b0 <cmd_set_adv_data_or_scan_rsp.constprop.6+0x910>
   14060:	e08fb00b 	add	fp, pc, fp
   14064:	e08fa00a 	add	sl, pc, sl
   14068:	e3a02006 	mov	r2, #6
   1406c:	e1a01009 	mov	r1, r9
   14070:	e1a0000b 	mov	r0, fp
   14074:	ebfffbf2 	bl	13044 <parse_arg_byte_stream_exact_length>
   14078:	e3500000 	cmp	r0, #0
   1407c:	e58d0020 	str	r0, [sp, #32]
   14080:	1a00000e 	bne	140c0 <cmd_set_adv_data_or_scan_rsp.constprop.6+0x420>
   14084:	e5dd2084 	ldrb	r2, [sp, #132]	; 0x84
   14088:	e3520007 	cmp	r2, #7
   1408c:	859f0520 	ldrhi	r0, [pc, #1312]	; 145b4 <cmd_set_adv_data_or_scan_rsp.constprop.6+0x914>
   14090:	808f0000 	addhi	r0, pc, r0
   14094:	8affff33 	bhi	13d68 <cmd_set_adv_data_or_scan_rsp.constprop.6+0xc8>
   14098:	e3a01006 	mov	r1, #6
   1409c:	e5990000 	ldr	r0, [r9]
   140a0:	e021a291 	mla	r1, r1, r2, sl
   140a4:	e2822001 	add	r2, r2, #1
   140a8:	e5cd2084 	strb	r2, [sp, #132]	; 0x84
   140ac:	e281cd06 	add	ip, r1, #384	; 0x180
   140b0:	e5810183 	str	r0, [r1, #387]	; 0x183
   140b4:	e1d910b4 	ldrh	r1, [r9, #4]
   140b8:	e1cc10b7 	strh	r1, [ip, #7]
   140bc:	eaffffe9 	b	14068 <cmd_set_adv_data_or_scan_rsp.constprop.6+0x3c8>
   140c0:	e3500002 	cmp	r0, #2
   140c4:	159f04ec 	ldrne	r0, [pc, #1260]	; 145b8 <cmd_set_adv_data_or_scan_rsp.constprop.6+0x918>
   140c8:	108f0000 	addne	r0, pc, r0
   140cc:	1affff12 	bne	13d1c <cmd_set_adv_data_or_scan_rsp.constprop.6+0x7c>
   140d0:	e5dd3084 	ldrb	r3, [sp, #132]	; 0x84
   140d4:	e3530000 	cmp	r3, #0
   140d8:	0a000004 	beq	140f0 <cmd_set_adv_data_or_scan_rsp.constprop.6+0x450>
   140dc:	e59f34d8 	ldr	r3, [pc, #1240]	; 145bc <cmd_set_adv_data_or_scan_rsp.constprop.6+0x91c>
   140e0:	e08f3003 	add	r3, pc, r3
   140e4:	e2833d06 	add	r3, r3, #384	; 0x180
   140e8:	e2833003 	add	r3, r3, #3
   140ec:	e58d3080 	str	r3, [sp, #128]	; 0x80
   140f0:	e59f04c8 	ldr	r0, [pc, #1224]	; 145c0 <cmd_set_adv_data_or_scan_rsp.constprop.6+0x920>
   140f4:	e1a01006 	mov	r1, r6
   140f8:	e08f0000 	add	r0, pc, r0
   140fc:	ebfffd69 	bl	136a8 <parse_arg_uint16>
   14100:	e59d3020 	ldr	r3, [sp, #32]
   14104:	e3530000 	cmp	r3, #0
   14108:	05dd3088 	ldrbeq	r3, [sp, #136]	; 0x88
   1410c:	03833001 	orreq	r3, r3, #1
   14110:	05cd3088 	strbeq	r3, [sp, #136]	; 0x88
   14114:	e1cd08b6 	strh	r0, [sp, #134]	; 0x86
   14118:	0a000003 	beq	1412c <cmd_set_adv_data_or_scan_rsp.constprop.6+0x48c>
   1411c:	e3530002 	cmp	r3, #2
   14120:	159f049c 	ldrne	r0, [pc, #1180]	; 145c4 <cmd_set_adv_data_or_scan_rsp.constprop.6+0x924>
   14124:	108f0000 	addne	r0, pc, r0
   14128:	1afffefb 	bne	13d1c <cmd_set_adv_data_or_scan_rsp.constprop.6+0x7c>
   1412c:	e59f0494 	ldr	r0, [pc, #1172]	; 145c8 <cmd_set_adv_data_or_scan_rsp.constprop.6+0x928>
   14130:	e1a01006 	mov	r1, r6
   14134:	e08f0000 	add	r0, pc, r0
   14138:	ebfffd5a 	bl	136a8 <parse_arg_uint16>
   1413c:	e59d3020 	ldr	r3, [sp, #32]
   14140:	e3530000 	cmp	r3, #0
   14144:	05dd308c 	ldrbeq	r3, [sp, #140]	; 0x8c
   14148:	03833001 	orreq	r3, r3, #1
   1414c:	05cd308c 	strbeq	r3, [sp, #140]	; 0x8c
   14150:	e1cd08ba 	strh	r0, [sp, #138]	; 0x8a
   14154:	0a000003 	beq	14168 <cmd_set_adv_data_or_scan_rsp.constprop.6+0x4c8>
   14158:	e3530002 	cmp	r3, #2
   1415c:	159f0468 	ldrne	r0, [pc, #1128]	; 145cc <cmd_set_adv_data_or_scan_rsp.constprop.6+0x92c>
   14160:	108f0000 	addne	r0, pc, r0
   14164:	1afffeec 	bne	13d1c <cmd_set_adv_data_or_scan_rsp.constprop.6+0x7c>
   14168:	e59f9460 	ldr	r9, [pc, #1120]	; 145d0 <cmd_set_adv_data_or_scan_rsp.constprop.6+0x930>
   1416c:	e28d3010 	add	r3, sp, #16
   14170:	e59f045c 	ldr	r0, [pc, #1116]	; 145d4 <cmd_set_adv_data_or_scan_rsp.constprop.6+0x934>
   14174:	e3a0101d 	mov	r1, #29
   14178:	e08f9009 	add	r9, pc, r9
   1417c:	e2899e1b 	add	r9, r9, #432	; 0x1b0
   14180:	e08f0000 	add	r0, pc, r0
   14184:	e2899003 	add	r9, r9, #3
   14188:	e1a02009 	mov	r2, r9
   1418c:	ebfffb78 	bl	12f74 <parse_arg_byte_stream>
   14190:	e3500000 	cmp	r0, #0
   14194:	e58d0020 	str	r0, [sp, #32]
   14198:	058d9090 	streq	r9, [sp, #144]	; 0x90
   1419c:	059d3010 	ldreq	r3, [sp, #16]
   141a0:	05cd3094 	strbeq	r3, [sp, #148]	; 0x94
   141a4:	0a000003 	beq	141b8 <cmd_set_adv_data_or_scan_rsp.constprop.6+0x518>
   141a8:	e3500002 	cmp	r0, #2
   141ac:	159f0424 	ldrne	r0, [pc, #1060]	; 145d8 <cmd_set_adv_data_or_scan_rsp.constprop.6+0x938>
   141b0:	108f0000 	addne	r0, pc, r0
   141b4:	1afffed8 	bne	13d1c <cmd_set_adv_data_or_scan_rsp.constprop.6+0x7c>
   141b8:	e59f941c 	ldr	r9, [pc, #1052]	; 145dc <cmd_set_adv_data_or_scan_rsp.constprop.6+0x93c>
   141bc:	e28d3014 	add	r3, sp, #20
   141c0:	e59f0418 	ldr	r0, [pc, #1048]	; 145e0 <cmd_set_adv_data_or_scan_rsp.constprop.6+0x940>
   141c4:	e3a0101d 	mov	r1, #29
   141c8:	e08f9009 	add	r9, pc, r9
   141cc:	e2899e1d 	add	r9, r9, #464	; 0x1d0
   141d0:	e08f0000 	add	r0, pc, r0
   141d4:	e1a02009 	mov	r2, r9
   141d8:	ebfffb65 	bl	12f74 <parse_arg_byte_stream>
   141dc:	e3500000 	cmp	r0, #0
   141e0:	e58d0020 	str	r0, [sp, #32]
   141e4:	058d9098 	streq	r9, [sp, #152]	; 0x98
   141e8:	059d3014 	ldreq	r3, [sp, #20]
   141ec:	05cd309c 	strbeq	r3, [sp, #156]	; 0x9c
   141f0:	0a000003 	beq	14204 <cmd_set_adv_data_or_scan_rsp.constprop.6+0x564>
   141f4:	e3500002 	cmp	r0, #2
   141f8:	159f03e4 	ldrne	r0, [pc, #996]	; 145e4 <cmd_set_adv_data_or_scan_rsp.constprop.6+0x944>
   141fc:	108f0000 	addne	r0, pc, r0
   14200:	1afffec5 	bne	13d1c <cmd_set_adv_data_or_scan_rsp.constprop.6+0x7c>
   14204:	e59f93dc 	ldr	r9, [pc, #988]	; 145e8 <cmd_set_adv_data_or_scan_rsp.constprop.6+0x948>
   14208:	e28d3018 	add	r3, sp, #24
   1420c:	e59f03d8 	ldr	r0, [pc, #984]	; 145ec <cmd_set_adv_data_or_scan_rsp.constprop.6+0x94c>
   14210:	e3a0101d 	mov	r1, #29
   14214:	e08f9009 	add	r9, pc, r9
   14218:	e2899f7b 	add	r9, r9, #492	; 0x1ec
   1421c:	e08f0000 	add	r0, pc, r0
   14220:	e2899001 	add	r9, r9, #1
   14224:	e1a02009 	mov	r2, r9
   14228:	ebfffb51 	bl	12f74 <parse_arg_byte_stream>
   1422c:	e3500000 	cmp	r0, #0
   14230:	e58d0020 	str	r0, [sp, #32]
   14234:	058d90a0 	streq	r9, [sp, #160]	; 0xa0
   14238:	059d3018 	ldreq	r3, [sp, #24]
   1423c:	05cd30a4 	strbeq	r3, [sp, #164]	; 0xa4
   14240:	0a000003 	beq	14254 <cmd_set_adv_data_or_scan_rsp.constprop.6+0x5b4>
   14244:	e3500002 	cmp	r0, #2
   14248:	159f03a0 	ldrne	r0, [pc, #928]	; 145f0 <cmd_set_adv_data_or_scan_rsp.constprop.6+0x950>
   1424c:	108f0000 	addne	r0, pc, r0
   14250:	1afffeb1 	bne	13d1c <cmd_set_adv_data_or_scan_rsp.constprop.6+0x7c>
   14254:	e59f9398 	ldr	r9, [pc, #920]	; 145f4 <cmd_set_adv_data_or_scan_rsp.constprop.6+0x954>
   14258:	e28d301c 	add	r3, sp, #28
   1425c:	e59f0394 	ldr	r0, [pc, #916]	; 145f8 <cmd_set_adv_data_or_scan_rsp.constprop.6+0x958>
   14260:	e3a0101d 	mov	r1, #29
   14264:	e08f9009 	add	r9, pc, r9
   14268:	e2899f82 	add	r9, r9, #520	; 0x208
   1426c:	e08f0000 	add	r0, pc, r0
   14270:	e2899002 	add	r9, r9, #2
   14274:	e1a02009 	mov	r2, r9
   14278:	ebfffb3d 	bl	12f74 <parse_arg_byte_stream>
   1427c:	e3500000 	cmp	r0, #0
   14280:	e58d0020 	str	r0, [sp, #32]
   14284:	058d90a8 	streq	r9, [sp, #168]	; 0xa8
   14288:	059d301c 	ldreq	r3, [sp, #28]
   1428c:	05cd30ac 	strbeq	r3, [sp, #172]	; 0xac
   14290:	0a000003 	beq	142a4 <cmd_set_adv_data_or_scan_rsp.constprop.6+0x604>
   14294:	e3500002 	cmp	r0, #2
   14298:	159f035c 	ldrne	r0, [pc, #860]	; 145fc <cmd_set_adv_data_or_scan_rsp.constprop.6+0x95c>
   1429c:	108f0000 	addne	r0, pc, r0
   142a0:	1afffe9d 	bne	13d1c <cmd_set_adv_data_or_scan_rsp.constprop.6+0x7c>
   142a4:	e59f0354 	ldr	r0, [pc, #852]	; 14600 <cmd_set_adv_data_or_scan_rsp.constprop.6+0x960>
   142a8:	e1a03006 	mov	r3, r6
   142ac:	e3a02014 	mov	r2, #20
   142b0:	e3e01063 	mvn	r1, #99	; 0x63
   142b4:	e08f0000 	add	r0, pc, r0
   142b8:	ebfffcdc 	bl	13630 <parse_arg_long_bounds>
   142bc:	e59d3020 	ldr	r3, [sp, #32]
   142c0:	e3530000 	cmp	r3, #0
   142c4:	06af6070 	sxtbeq	r6, r0
   142c8:	0a000004 	beq	142e0 <cmd_set_adv_data_or_scan_rsp.constprop.6+0x640>
   142cc:	e3530002 	cmp	r3, #2
   142d0:	03a06000 	moveq	r6, #0
   142d4:	159f0328 	ldrne	r0, [pc, #808]	; 14604 <cmd_set_adv_data_or_scan_rsp.constprop.6+0x964>
   142d8:	108f0000 	addne	r0, pc, r0
   142dc:	1afffe8e 	bne	13d1c <cmd_set_adv_data_or_scan_rsp.constprop.6+0x7c>
   142e0:	e59f0320 	ldr	r0, [pc, #800]	; 14608 <cmd_set_adv_data_or_scan_rsp.constprop.6+0x968>
   142e4:	e08f0000 	add	r0, pc, r0
   142e8:	ebfffad7 	bl	12e4c <parse_arg_extract>
   142ec:	e250a000 	subs	sl, r0, #0
   142f0:	0a000088 	beq	14518 <cmd_set_adv_data_or_scan_rsp.constprop.6+0x878>
   142f4:	ebfff545 	bl	11810 <strlen@plt>
   142f8:	e59f330c 	ldr	r3, [pc, #780]	; 1460c <cmd_set_adv_data_or_scan_rsp.constprop.6+0x96c>
   142fc:	e08f3003 	add	r3, pc, r3
   14300:	e28330b0 	add	r3, r3, #176	; 0xb0
   14304:	e58d3004 	str	r3, [sp, #4]
   14308:	e1a07000 	mov	r7, r0
   1430c:	e59d3004 	ldr	r3, [sp, #4]
   14310:	e7939188 	ldr	r9, [r3, r8, lsl #3]
   14314:	e1a00009 	mov	r0, r9
   14318:	ebfff53c 	bl	11810 <strlen@plt>
   1431c:	e1570000 	cmp	r7, r0
   14320:	e1a0b000 	mov	fp, r0
   14324:	ba000022 	blt	143b4 <cmd_set_adv_data_or_scan_rsp.constprop.6+0x714>
   14328:	e1a02000 	mov	r2, r0
   1432c:	e1a01009 	mov	r1, r9
   14330:	e1a0000a 	mov	r0, sl
   14334:	ebfff4cc 	bl	1166c <memcmp@plt>
   14338:	e2509000 	subs	r9, r0, #0
   1433c:	1a00001c 	bne	143b4 <cmd_set_adv_data_or_scan_rsp.constprop.6+0x714>
   14340:	e6ef3078 	uxtb	r3, r8
   14344:	e59f82c4 	ldr	r8, [pc, #708]	; 14610 <cmd_set_adv_data_or_scan_rsp.constprop.6+0x970>
   14348:	e1a05009 	mov	r5, r9
   1434c:	e58d3000 	str	r3, [sp]
   14350:	e08f8008 	add	r8, pc, r8
   14354:	e28880d0 	add	r8, r8, #208	; 0xd0
   14358:	e7981185 	ldr	r1, [r8, r5, lsl #3]
   1435c:	e1a00001 	mov	r0, r1
   14360:	e58d1004 	str	r1, [sp, #4]
   14364:	ebfff529 	bl	11810 <strlen@plt>
   14368:	e1a04000 	mov	r4, r0
   1436c:	e0470000 	sub	r0, r7, r0
   14370:	e15b0000 	cmp	fp, r0
   14374:	ca000024 	bgt	1440c <cmd_set_adv_data_or_scan_rsp.constprop.6+0x76c>
   14378:	e1a02004 	mov	r2, r4
   1437c:	e59d1004 	ldr	r1, [sp, #4]
   14380:	e08a0000 	add	r0, sl, r0
   14384:	ebfff4b8 	bl	1166c <memcmp@plt>
   14388:	e3500000 	cmp	r0, #0
   1438c:	1a00001e 	bne	1440c <cmd_set_adv_data_or_scan_rsp.constprop.6+0x76c>
   14390:	e047700b 	sub	r7, r7, fp
   14394:	e6ef5075 	uxtb	r5, r5
   14398:	e0474004 	sub	r4, r7, r4
   1439c:	e6ef4074 	uxtb	r4, r4
   143a0:	e1a02004 	mov	r2, r4
   143a4:	e08a100b 	add	r1, sl, fp
   143a8:	e28d003c 	add	r0, sp, #60	; 0x3c
   143ac:	ebfff526 	bl	1184c <memcpy@plt>
   143b0:	ea000003 	b	143c4 <cmd_set_adv_data_or_scan_rsp.constprop.6+0x724>
   143b4:	e2888001 	add	r8, r8, #1
   143b8:	e3580004 	cmp	r8, #4
   143bc:	1affffd2 	bne	1430c <cmd_set_adv_data_or_scan_rsp.constprop.6+0x66c>
   143c0:	e3a09003 	mov	r9, #3
   143c4:	e3590000 	cmp	r9, #0
   143c8:	e58d9020 	str	r9, [sp, #32]
   143cc:	1a000006 	bne	143ec <cmd_set_adv_data_or_scan_rsp.constprop.6+0x74c>
   143d0:	e35500ff 	cmp	r5, #255	; 0xff
   143d4:	12848001 	addne	r8, r4, #1
   143d8:	01a08004 	moveq	r8, r4
   143dc:	e3580011 	cmp	r8, #17
   143e0:	da000010 	ble	14428 <cmd_set_adv_data_or_scan_rsp.constprop.6+0x788>
   143e4:	e3a00003 	mov	r0, #3
   143e8:	e58d0020 	str	r0, [sp, #32]
   143ec:	e59d0020 	ldr	r0, [sp, #32]
   143f0:	e3500000 	cmp	r0, #0
   143f4:	0afffe5d 	beq	13d70 <cmd_set_adv_data_or_scan_rsp.constprop.6+0xd0>
   143f8:	e1a01000 	mov	r1, r0
   143fc:	e59f0210 	ldr	r0, [pc, #528]	; 14614 <cmd_set_adv_data_or_scan_rsp.constprop.6+0x974>
   14400:	e08f0000 	add	r0, pc, r0
   14404:	ebfff528 	bl	118ac <printf@plt>
   14408:	eafffe44 	b	13d20 <cmd_set_adv_data_or_scan_rsp.constprop.6+0x80>
   1440c:	e2855001 	add	r5, r5, #1
   14410:	e355000e 	cmp	r5, #14
   14414:	1affffcf 	bne	14358 <cmd_set_adv_data_or_scan_rsp.constprop.6+0x6b8>
   14418:	e047400b 	sub	r4, r7, fp
   1441c:	e3a050ff 	mov	r5, #255	; 0xff
   14420:	e6ef4074 	uxtb	r4, r4
   14424:	eaffffdd 	b	143a0 <cmd_set_adv_data_or_scan_rsp.constprop.6+0x700>
   14428:	e59f71e8 	ldr	r7, [pc, #488]	; 14618 <cmd_set_adv_data_or_scan_rsp.constprop.6+0x978>
   1442c:	e6ef6076 	uxtb	r6, r6
   14430:	e3e03055 	mvn	r3, #85	; 0x55
   14434:	e08f7007 	add	r7, pc, r7
   14438:	e5c73227 	strb	r3, [r7, #551]	; 0x227
   1443c:	e3e03001 	mvn	r3, #1
   14440:	e5c73228 	strb	r3, [r7, #552]	; 0x228
   14444:	e3a03010 	mov	r3, #16
   14448:	e5c73229 	strb	r3, [r7, #553]	; 0x229
   1444c:	e2863064 	add	r3, r6, #100	; 0x64
   14450:	e6ef3073 	uxtb	r3, r3
   14454:	e3530078 	cmp	r3, #120	; 0x78
   14458:	8affffe1 	bhi	143e4 <cmd_set_adv_data_or_scan_rsp.constprop.6+0x744>
   1445c:	e59d3000 	ldr	r3, [sp]
   14460:	e1a02004 	mov	r2, r4
   14464:	e5c7622a 	strb	r6, [r7, #554]	; 0x22a
   14468:	e28d103c 	add	r1, sp, #60	; 0x3c
   1446c:	e2870f8b 	add	r0, r7, #556	; 0x22c
   14470:	e5c7322b 	strb	r3, [r7, #555]	; 0x22b
   14474:	ebfff4f4 	bl	1184c <memcpy@plt>
   14478:	e35500ff 	cmp	r5, #255	; 0xff
   1447c:	10874004 	addne	r4, r7, r4
   14480:	15c4522c 	strbne	r5, [r4, #556]	; 0x22c
   14484:	e5dd5058 	ldrb	r5, [sp, #88]	; 0x58
   14488:	e3550003 	cmp	r5, #3
   1448c:	8affffd4 	bhi	143e4 <cmd_set_adv_data_or_scan_rsp.constprop.6+0x744>
   14490:	e3550000 	cmp	r5, #0
   14494:	0a000002 	beq	144a4 <cmd_set_adv_data_or_scan_rsp.constprop.6+0x804>
   14498:	e5dd3059 	ldrb	r3, [sp, #89]	; 0x59
   1449c:	e3130001 	tst	r3, #1
   144a0:	0affffcf 	beq	143e4 <cmd_set_adv_data_or_scan_rsp.constprop.6+0x744>
   144a4:	e5dd307c 	ldrb	r3, [sp, #124]	; 0x7c
   144a8:	e3530000 	cmp	r3, #0
   144ac:	1affffcc 	bne	143e4 <cmd_set_adv_data_or_scan_rsp.constprop.6+0x744>
   144b0:	e59f3164 	ldr	r3, [pc, #356]	; 1461c <cmd_set_adv_data_or_scan_rsp.constprop.6+0x97c>
   144b4:	e1a02105 	lsl	r2, r5, #2
   144b8:	e59f4160 	ldr	r4, [pc, #352]	; 14620 <cmd_set_adv_data_or_scan_rsp.constprop.6+0x980>
   144bc:	e2855001 	add	r5, r5, #1
   144c0:	e08f3003 	add	r3, pc, r3
   144c4:	e59d1054 	ldr	r1, [sp, #84]	; 0x54
   144c8:	e08f4004 	add	r4, pc, r4
   144cc:	e2888005 	add	r8, r8, #5
   144d0:	e5933004 	ldr	r3, [r3, #4]
   144d4:	e2846f8f 	add	r6, r4, #572	; 0x23c
   144d8:	e2860006 	add	r0, r6, #6
   144dc:	e2844f89 	add	r4, r4, #548	; 0x224
   144e0:	e2866002 	add	r6, r6, #2
   144e4:	e584301a 	str	r3, [r4, #26]
   144e8:	ebfff4d7 	bl	1184c <memcpy@plt>
   144ec:	e5dd3059 	ldrb	r3, [sp, #89]	; 0x59
   144f0:	e28d0050 	add	r0, sp, #80	; 0x50
   144f4:	e2844003 	add	r4, r4, #3
   144f8:	e58d6054 	str	r6, [sp, #84]	; 0x54
   144fc:	e3833001 	orr	r3, r3, #1
   14500:	e5cd5058 	strb	r5, [sp, #88]	; 0x58
   14504:	e5cd3059 	strb	r3, [sp, #89]	; 0x59
   14508:	e58d4078 	str	r4, [sp, #120]	; 0x78
   1450c:	e5cd807c 	strb	r8, [sp, #124]	; 0x7c
   14510:	eb00666d 	bl	2decc <ble_gap_adv_set_fields>
   14514:	eaffffb3 	b	143e8 <cmd_set_adv_data_or_scan_rsp.constprop.6+0x748>
   14518:	e3570000 	cmp	r7, #0
   1451c:	e28d0050 	add	r0, sp, #80	; 0x50
   14520:	0afffffa 	beq	14510 <cmd_set_adv_data_or_scan_rsp.constprop.6+0x870>
   14524:	eb006646 	bl	2de44 <ble_gap_adv_rsp_set_fields>
   14528:	eaffffae 	b	143e8 <cmd_set_adv_data_or_scan_rsp.constprop.6+0x748>
   1452c:	000229ad 	.word	0x000229ad
   14530:	0002298f 	.word	0x0002298f
   14534:	00022b12 	.word	0x00022b12
   14538:	0003bb8c 	.word	0x0003bb8c
   1453c:	0002295d 	.word	0x0002295d
   14540:	00022929 	.word	0x00022929
   14544:	0003bb14 	.word	0x0003bb14
   14548:	00022918 	.word	0x00022918
   1454c:	00022b46 	.word	0x00022b46
   14550:	0003badc 	.word	0x0003badc
   14554:	00022904 	.word	0x00022904
   14558:	000228d0 	.word	0x000228d0
   1455c:	000228d0 	.word	0x000228d0
   14560:	0003ba64 	.word	0x0003ba64
   14564:	000228bf 	.word	0x000228bf
   14568:	0003ba34 	.word	0x0003ba34
   1456c:	00022ad2 	.word	0x00022ad2
   14570:	000228a3 	.word	0x000228a3
   14574:	0002286f 	.word	0x0002286f
   14578:	00022863 	.word	0x00022863
   1457c:	0003b9a0 	.word	0x0003b9a0
   14580:	00022853 	.word	0x00022853
   14584:	00022854 	.word	0x00022854
   14588:	0002733a 	.word	0x0002733a
   1458c:	00022845 	.word	0x00022845
   14590:	0003b910 	.word	0x0003b910
   14594:	0002283f 	.word	0x0002283f
   14598:	00022828 	.word	0x00022828
   1459c:	000227dc 	.word	0x000227dc
   145a0:	0003b8b0 	.word	0x0003b8b0
   145a4:	0002281d 	.word	0x0002281d
   145a8:	00022801 	.word	0x00022801
   145ac:	00022815 	.word	0x00022815
   145b0:	0003b860 	.word	0x0003b860
   145b4:	000227fb 	.word	0x000227fb
   145b8:	000227c3 	.word	0x000227c3
   145bc:	0003b7e4 	.word	0x0003b7e4
   145c0:	000227bd 	.word	0x000227bd
   145c4:	0002279c 	.word	0x0002279c
   145c8:	000227ab 	.word	0x000227ab
   145cc:	00022794 	.word	0x00022794
   145d0:	0003b74c 	.word	0x0003b74c
   145d4:	0002279d 	.word	0x0002279d
   145d8:	00022781 	.word	0x00022781
   145dc:	0003b6fc 	.word	0x0003b6fc
   145e0:	00022789 	.word	0x00022789
   145e4:	00022772 	.word	0x00022772
   145e8:	0003b6b0 	.word	0x0003b6b0
   145ec:	0002277b 	.word	0x0002277b
   145f0:	0002274f 	.word	0x0002274f
   145f4:	0003b660 	.word	0x0003b660
   145f8:	00022747 	.word	0x00022747
   145fc:	00022720 	.word	0x00022720
   14600:	00022725 	.word	0x00022725
   14604:	0002271a 	.word	0x0002271a
   14608:	0002273b 	.word	0x0002273b
   1460c:	000393e0 	.word	0x000393e0
   14610:	0003938c 	.word	0x0003938c
   14614:	0002262d 	.word	0x0002262d
   14618:	0003b490 	.word	0x0003b490
   1461c:	00021c60 	.word	0x00021c60
   14620:	0003b3fc 	.word	0x0003b3fc

00014624 <cmd_set_scan_rsp>:
   14624:	e3a02001 	mov	r2, #1
   14628:	eafffd9c 	b	13ca0 <cmd_set_adv_data_or_scan_rsp.constprop.6>

0001462c <cmd_set_adv_data>:
   1462c:	e3a02000 	mov	r2, #0
   14630:	eafffd9a 	b	13ca0 <cmd_set_adv_data_or_scan_rsp.constprop.6>

00014634 <parse_arg_uint8_dflt>:
   14634:	e92d4037 	push	{r0, r1, r2, r4, r5, lr}
   14638:	e1a05001 	mov	r5, r1
   1463c:	e28d1004 	add	r1, sp, #4
   14640:	e1a04002 	mov	r4, r2
   14644:	ebfffd8e 	bl	13c84 <parse_arg_uint8>
   14648:	e59d3004 	ldr	r3, [sp, #4]
   1464c:	e3530002 	cmp	r3, #2
   14650:	03a03000 	moveq	r3, #0
   14654:	058d3004 	streq	r3, [sp, #4]
   14658:	e59d3004 	ldr	r3, [sp, #4]
   1465c:	01a00005 	moveq	r0, r5
   14660:	e5843000 	str	r3, [r4]
   14664:	e28dd00c 	add	sp, sp, #12
   14668:	e8bd8030 	pop	{r4, r5, pc}

0001466c <cmd_afh_set>:
   1466c:	e92d407f 	push	{r0, r1, r2, r3, r4, r5, r6, lr}
   14670:	e2811004 	add	r1, r1, #4
   14674:	e2400001 	sub	r0, r0, #1
   14678:	ebfff9b9 	bl	12d64 <parse_arg_all>
   1467c:	e3500000 	cmp	r0, #0
   14680:	e1a04000 	mov	r4, r0
   14684:	e58d000c 	str	r0, [sp, #12]
   14688:	1a00000d 	bne	146c4 <cmd_afh_set+0x58>
   1468c:	e28d600c 	add	r6, sp, #12
   14690:	e59f00a4 	ldr	r0, [pc, #164]	; 1473c <cmd_afh_set+0xd0>
   14694:	e1a01006 	mov	r1, r6
   14698:	e08f0000 	add	r0, pc, r0
   1469c:	ebfffd78 	bl	13c84 <parse_arg_uint8>
   146a0:	e59d300c 	ldr	r3, [sp, #12]
   146a4:	e3500064 	cmp	r0, #100	; 0x64
   146a8:	93530000 	cmpls	r3, #0
   146ac:	e1a05000 	mov	r5, r0
   146b0:	0a000006 	beq	146d0 <cmd_afh_set+0x64>
   146b4:	e59f0084 	ldr	r0, [pc, #132]	; 14740 <cmd_afh_set+0xd4>
   146b8:	e08f0000 	add	r0, pc, r0
   146bc:	ebfff4b3 	bl	11990 <puts@plt>
   146c0:	e3e04000 	mvn	r4, #0
   146c4:	e1a00004 	mov	r0, r4
   146c8:	e28dd010 	add	sp, sp, #16
   146cc:	e8bd8070 	pop	{r4, r5, r6, pc}
   146d0:	e59f006c 	ldr	r0, [pc, #108]	; 14744 <cmd_afh_set+0xd8>
   146d4:	e1a01006 	mov	r1, r6
   146d8:	e08f0000 	add	r0, pc, r0
   146dc:	ebfffd68 	bl	13c84 <parse_arg_uint8>
   146e0:	e59d300c 	ldr	r3, [sp, #12]
   146e4:	e350001e 	cmp	r0, #30
   146e8:	93530000 	cmpls	r3, #0
   146ec:	159f0054 	ldrne	r0, [pc, #84]	; 14748 <cmd_afh_set+0xdc>
   146f0:	108f0000 	addne	r0, pc, r0
   146f4:	1afffff0 	bne	146bc <cmd_afh_set+0x50>
   146f8:	e5cd0009 	strb	r0, [sp, #9]
   146fc:	e1a03004 	mov	r3, r4
   14700:	e58d4000 	str	r4, [sp]
   14704:	e3a02002 	mov	r2, #2
   14708:	e28d1008 	add	r1, sp, #8
   1470c:	e30f0f21 	movw	r0, #65313	; 0xff21
   14710:	e5cd5008 	strb	r5, [sp, #8]
   14714:	eb00597a 	bl	2ad04 <ble_hs_hci_cmd_tx>
   14718:	e3500000 	cmp	r0, #0
   1471c:	1a000003 	bne	14730 <cmd_afh_set+0xc4>
   14720:	e59f0024 	ldr	r0, [pc, #36]	; 1474c <cmd_afh_set+0xe0>
   14724:	e08f0000 	add	r0, pc, r0
   14728:	ebfff498 	bl	11990 <puts@plt>
   1472c:	eaffffe4 	b	146c4 <cmd_afh_set+0x58>
   14730:	e59f0018 	ldr	r0, [pc, #24]	; 14750 <cmd_afh_set+0xe4>
   14734:	e08f0000 	add	r0, pc, r0
   14738:	eafffffa 	b	14728 <cmd_afh_set+0xbc>
   1473c:	000223be 	.word	0x000223be
   14740:	000223a8 	.word	0x000223a8
   14744:	00023657 	.word	0x00023657
   14748:	00022380 	.word	0x00022380
   1474c:	00022359 	.word	0x00022359
   14750:	00022364 	.word	0x00022364

00014754 <cmd_tone_tx>:
   14754:	e92d407f 	push	{r0, r1, r2, r3, r4, r5, r6, lr}
   14758:	e1a06000 	mov	r6, r0
   1475c:	e1a05001 	mov	r5, r1
   14760:	e2400001 	sub	r0, r0, #1
   14764:	e2811004 	add	r1, r1, #4
   14768:	ebfff97d 	bl	12d64 <parse_arg_all>
   1476c:	e3500000 	cmp	r0, #0
   14770:	e1a04000 	mov	r4, r0
   14774:	e58d000c 	str	r0, [sp, #12]
   14778:	1a00001d 	bne	147f4 <cmd_tone_tx+0xa0>
   1477c:	e3560001 	cmp	r6, #1
   14780:	da000021 	ble	1480c <cmd_tone_tx+0xb8>
   14784:	e59f1130 	ldr	r1, [pc, #304]	; 148bc <cmd_tone_tx+0x168>
   14788:	e5950004 	ldr	r0, [r5, #4]
   1478c:	e08f1001 	add	r1, pc, r1
   14790:	ebfff49f 	bl	11a14 <strcmp@plt>
   14794:	e3500000 	cmp	r0, #0
   14798:	1a00001b 	bne	1480c <cmd_tone_tx+0xb8>
   1479c:	e59f011c 	ldr	r0, [pc, #284]	; 148c0 <cmd_tone_tx+0x16c>
   147a0:	e08f0000 	add	r0, pc, r0
   147a4:	ebfff479 	bl	11990 <puts@plt>
   147a8:	e58d4000 	str	r4, [sp]
   147ac:	e1a03004 	mov	r3, r4
   147b0:	e1a02004 	mov	r2, r4
   147b4:	e1a01004 	mov	r1, r4
   147b8:	e30f0f03 	movw	r0, #65283	; 0xff03
   147bc:	eb005950 	bl	2ad04 <ble_hs_hci_cmd_tx>
   147c0:	e2504000 	subs	r4, r0, #0
   147c4:	1a00000d 	bne	14800 <cmd_tone_tx+0xac>
   147c8:	e59f00f4 	ldr	r0, [pc, #244]	; 148c4 <cmd_tone_tx+0x170>
   147cc:	e08f0000 	add	r0, pc, r0
   147d0:	ebfff46e 	bl	11990 <puts@plt>
   147d4:	e3540000 	cmp	r4, #0
   147d8:	e58d400c 	str	r4, [sp, #12]
   147dc:	0a000004 	beq	147f4 <cmd_tone_tx+0xa0>
   147e0:	e59f00e0 	ldr	r0, [pc, #224]	; 148c8 <cmd_tone_tx+0x174>
   147e4:	e1a01004 	mov	r1, r4
   147e8:	e08f0000 	add	r0, pc, r0
   147ec:	ebfff42e 	bl	118ac <printf@plt>
   147f0:	e59d400c 	ldr	r4, [sp, #12]
   147f4:	e1a00004 	mov	r0, r4
   147f8:	e28dd010 	add	sp, sp, #16
   147fc:	e8bd8070 	pop	{r4, r5, r6, pc}
   14800:	e59f00c4 	ldr	r0, [pc, #196]	; 148cc <cmd_tone_tx+0x178>
   14804:	e08f0000 	add	r0, pc, r0
   14808:	eafffff0 	b	147d0 <cmd_tone_tx+0x7c>
   1480c:	e28d400c 	add	r4, sp, #12
   14810:	e59f00b8 	ldr	r0, [pc, #184]	; 148d0 <cmd_tone_tx+0x17c>
   14814:	e1a01004 	mov	r1, r4
   14818:	e08f0000 	add	r0, pc, r0
   1481c:	ebfffd18 	bl	13c84 <parse_arg_uint8>
   14820:	e59d300c 	ldr	r3, [sp, #12]
   14824:	e3530000 	cmp	r3, #0
   14828:	e1a05000 	mov	r5, r0
   1482c:	0a000003 	beq	14840 <cmd_tone_tx+0xec>
   14830:	e59f009c 	ldr	r0, [pc, #156]	; 148d4 <cmd_tone_tx+0x180>
   14834:	e08f0000 	add	r0, pc, r0
   14838:	ebfff454 	bl	11990 <puts@plt>
   1483c:	eaffffeb 	b	147f0 <cmd_tone_tx+0x9c>
   14840:	e59f0090 	ldr	r0, [pc, #144]	; 148d8 <cmd_tone_tx+0x184>
   14844:	e1a01004 	mov	r1, r4
   14848:	e08f0000 	add	r0, pc, r0
   1484c:	ebfffd0c 	bl	13c84 <parse_arg_uint8>
   14850:	e59d400c 	ldr	r4, [sp, #12]
   14854:	e3540000 	cmp	r4, #0
   14858:	e1a02000 	mov	r2, r0
   1485c:	159f0078 	ldrne	r0, [pc, #120]	; 148dc <cmd_tone_tx+0x188>
   14860:	108f0000 	addne	r0, pc, r0
   14864:	1afffff3 	bne	14838 <cmd_tone_tx+0xe4>
   14868:	e5cd0009 	strb	r0, [sp, #9]
   1486c:	e1a01005 	mov	r1, r5
   14870:	e59f0068 	ldr	r0, [pc, #104]	; 148e0 <cmd_tone_tx+0x18c>
   14874:	e5cd5008 	strb	r5, [sp, #8]
   14878:	e08f0000 	add	r0, pc, r0
   1487c:	ebfff40a 	bl	118ac <printf@plt>
   14880:	e58d4000 	str	r4, [sp]
   14884:	e1a03004 	mov	r3, r4
   14888:	e3a02002 	mov	r2, #2
   1488c:	e28d1008 	add	r1, sp, #8
   14890:	e30f0f02 	movw	r0, #65282	; 0xff02
   14894:	eb00591a 	bl	2ad04 <ble_hs_hci_cmd_tx>
   14898:	e2504000 	subs	r4, r0, #0
   1489c:	1a000003 	bne	148b0 <cmd_tone_tx+0x15c>
   148a0:	e59f003c 	ldr	r0, [pc, #60]	; 148e4 <cmd_tone_tx+0x190>
   148a4:	e08f0000 	add	r0, pc, r0
   148a8:	ebfff438 	bl	11990 <puts@plt>
   148ac:	eaffffd0 	b	147f4 <cmd_tone_tx+0xa0>
   148b0:	e59f0030 	ldr	r0, [pc, #48]	; 148e8 <cmd_tone_tx+0x194>
   148b4:	e08f0000 	add	r0, pc, r0
   148b8:	eafffffa 	b	148a8 <cmd_tone_tx+0x154>
   148bc:	00025fe3 	.word	0x00025fe3
   148c0:	00022312 	.word	0x00022312
   148c4:	000222f7 	.word	0x000222f7
   148c8:	00022316 	.word	0x00022316
   148cc:	000222dd 	.word	0x000222dd
   148d0:	000222f9 	.word	0x000222f9
   148d4:	000222e2 	.word	0x000222e2
   148d8:	000221a4 	.word	0x000221a4
   148dc:	000222c1 	.word	0x000222c1
   148e0:	000222b7 	.word	0x000222b7
   148e4:	000222ad 	.word	0x000222ad
   148e8:	000222bc 	.word	0x000222bc

000148ec <cmd_phy_set_default>:
   148ec:	e92d4030 	push	{r4, r5, lr}
   148f0:	e2811004 	add	r1, r1, #4
   148f4:	e24dd014 	sub	sp, sp, #20
   148f8:	e2400001 	sub	r0, r0, #1
   148fc:	ebfff918 	bl	12d64 <parse_arg_all>
   14900:	e3500000 	cmp	r0, #0
   14904:	e58d000c 	str	r0, [sp, #12]
   14908:	1a00000c 	bne	14940 <cmd_phy_set_default+0x54>
   1490c:	e28d500c 	add	r5, sp, #12
   14910:	e59f00d0 	ldr	r0, [pc, #208]	; 149e8 <cmd_phy_set_default+0xfc>
   14914:	e1a01005 	mov	r1, r5
   14918:	e08f0000 	add	r0, pc, r0
   1491c:	ebfffcd8 	bl	13c84 <parse_arg_uint8>
   14920:	e59d300c 	ldr	r3, [sp, #12]
   14924:	e3530000 	cmp	r3, #0
   14928:	e1a04000 	mov	r4, r0
   1492c:	0a000005 	beq	14948 <cmd_phy_set_default+0x5c>
   14930:	e59f00b4 	ldr	r0, [pc, #180]	; 149ec <cmd_phy_set_default+0x100>
   14934:	e08f0000 	add	r0, pc, r0
   14938:	ebfff414 	bl	11990 <puts@plt>
   1493c:	e59d000c 	ldr	r0, [sp, #12]
   14940:	e28dd014 	add	sp, sp, #20
   14944:	e8bd8030 	pop	{r4, r5, pc}
   14948:	e59f00a0 	ldr	r0, [pc, #160]	; 149f0 <cmd_phy_set_default+0x104>
   1494c:	e1a01005 	mov	r1, r5
   14950:	e08f0000 	add	r0, pc, r0
   14954:	ebfffcca 	bl	13c84 <parse_arg_uint8>
   14958:	e59d300c 	ldr	r3, [sp, #12]
   1495c:	e3530000 	cmp	r3, #0
   14960:	159f008c 	ldrne	r0, [pc, #140]	; 149f4 <cmd_phy_set_default+0x108>
   14964:	108f0000 	addne	r0, pc, r0
   14968:	1afffff2 	bne	14938 <cmd_phy_set_default+0x4c>
   1496c:	e3540007 	cmp	r4, #7
   14970:	93500007 	cmpls	r0, #7
   14974:	83a03001 	movhi	r3, #1
   14978:	93a03000 	movls	r3, #0
   1497c:	83a00012 	movhi	r0, #18
   14980:	8affffee 	bhi	14940 <cmd_phy_set_default+0x54>
   14984:	e59f206c 	ldr	r2, [pc, #108]	; 149f8 <cmd_phy_set_default+0x10c>
   14988:	e08f2002 	add	r2, pc, r2
   1498c:	e5d220dc 	ldrb	r2, [r2, #220]	; 0xdc
   14990:	e3520002 	cmp	r2, #2
   14994:	1a000011 	bne	149e0 <cmd_phy_set_default+0xf4>
   14998:	e3540000 	cmp	r4, #0
   1499c:	e28d1008 	add	r1, sp, #8
   149a0:	e1cd30b8 	strh	r3, [sp, #8]
   149a4:	e3a02003 	mov	r2, #3
   149a8:	e5c13002 	strb	r3, [r1, #2]
   149ac:	03a03001 	moveq	r3, #1
   149b0:	15cd4009 	strbne	r4, [sp, #9]
   149b4:	05cd3008 	strbeq	r3, [sp, #8]
   149b8:	e3500000 	cmp	r0, #0
   149bc:	15cd000a 	strbne	r0, [sp, #10]
   149c0:	e3020031 	movw	r0, #8241	; 0x2031
   149c4:	05dd3008 	ldrbeq	r3, [sp, #8]
   149c8:	03833002 	orreq	r3, r3, #2
   149cc:	05cd3008 	strbeq	r3, [sp, #8]
   149d0:	e3a03000 	mov	r3, #0
   149d4:	e58d3000 	str	r3, [sp]
   149d8:	eb0058c9 	bl	2ad04 <ble_hs_hci_cmd_tx>
   149dc:	eaffffd7 	b	14940 <cmd_phy_set_default+0x54>
   149e0:	e3a0001e 	mov	r0, #30
   149e4:	eaffffd5 	b	14940 <cmd_phy_set_default+0x54>
   149e8:	00022276 	.word	0x00022276
   149ec:	00022267 	.word	0x00022267
   149f0:	0002226c 	.word	0x0002226c
   149f4:	00022265 	.word	0x00022265
   149f8:	0003af3c 	.word	0x0003af3c

000149fc <cmd_phy_set>:
   149fc:	e92d41f0 	push	{r4, r5, r6, r7, r8, lr}
   14a00:	e2811004 	add	r1, r1, #4
   14a04:	e24dd018 	sub	sp, sp, #24
   14a08:	e2400001 	sub	r0, r0, #1
   14a0c:	ebfff8d4 	bl	12d64 <parse_arg_all>
   14a10:	e3500000 	cmp	r0, #0
   14a14:	e58d000c 	str	r0, [sp, #12]
   14a18:	1a00000c 	bne	14a50 <cmd_phy_set+0x54>
   14a1c:	e28d400c 	add	r4, sp, #12
   14a20:	e59f0150 	ldr	r0, [pc, #336]	; 14b78 <cmd_phy_set+0x17c>
   14a24:	e1a01004 	mov	r1, r4
   14a28:	e08f0000 	add	r0, pc, r0
   14a2c:	ebfffb1d 	bl	136a8 <parse_arg_uint16>
   14a30:	e59d300c 	ldr	r3, [sp, #12]
   14a34:	e3530000 	cmp	r3, #0
   14a38:	e1a07000 	mov	r7, r0
   14a3c:	0a000005 	beq	14a58 <cmd_phy_set+0x5c>
   14a40:	e59f0134 	ldr	r0, [pc, #308]	; 14b7c <cmd_phy_set+0x180>
   14a44:	e08f0000 	add	r0, pc, r0
   14a48:	ebfff3d0 	bl	11990 <puts@plt>
   14a4c:	e59d000c 	ldr	r0, [sp, #12]
   14a50:	e28dd018 	add	sp, sp, #24
   14a54:	e8bd81f0 	pop	{r4, r5, r6, r7, r8, pc}
   14a58:	e59f0120 	ldr	r0, [pc, #288]	; 14b80 <cmd_phy_set+0x184>
   14a5c:	e1a01004 	mov	r1, r4
   14a60:	e08f0000 	add	r0, pc, r0
   14a64:	ebfffc86 	bl	13c84 <parse_arg_uint8>
   14a68:	e59d300c 	ldr	r3, [sp, #12]
   14a6c:	e3530000 	cmp	r3, #0
   14a70:	e1a06000 	mov	r6, r0
   14a74:	159f0108 	ldrne	r0, [pc, #264]	; 14b84 <cmd_phy_set+0x188>
   14a78:	108f0000 	addne	r0, pc, r0
   14a7c:	1afffff1 	bne	14a48 <cmd_phy_set+0x4c>
   14a80:	e59f0100 	ldr	r0, [pc, #256]	; 14b88 <cmd_phy_set+0x18c>
   14a84:	e1a01004 	mov	r1, r4
   14a88:	e08f0000 	add	r0, pc, r0
   14a8c:	ebfffc7c 	bl	13c84 <parse_arg_uint8>
   14a90:	e59d300c 	ldr	r3, [sp, #12]
   14a94:	e3530000 	cmp	r3, #0
   14a98:	e1a05000 	mov	r5, r0
   14a9c:	159f00e8 	ldrne	r0, [pc, #232]	; 14b8c <cmd_phy_set+0x190>
   14aa0:	108f0000 	addne	r0, pc, r0
   14aa4:	1affffe7 	bne	14a48 <cmd_phy_set+0x4c>
   14aa8:	e59f00e0 	ldr	r0, [pc, #224]	; 14b90 <cmd_phy_set+0x194>
   14aac:	e1a01004 	mov	r1, r4
   14ab0:	e08f0000 	add	r0, pc, r0
   14ab4:	ebfffafb 	bl	136a8 <parse_arg_uint16>
   14ab8:	e59d300c 	ldr	r3, [sp, #12]
   14abc:	e3530000 	cmp	r3, #0
   14ac0:	e1a04000 	mov	r4, r0
   14ac4:	159f00c8 	ldrne	r0, [pc, #200]	; 14b94 <cmd_phy_set+0x198>
   14ac8:	108f0000 	addne	r0, pc, r0
   14acc:	1affffdd 	bne	14a48 <cmd_phy_set+0x4c>
   14ad0:	e59f30c0 	ldr	r3, [pc, #192]	; 14b98 <cmd_phy_set+0x19c>
   14ad4:	e08f3003 	add	r3, pc, r3
   14ad8:	e5d330dc 	ldrb	r3, [r3, #220]	; 0xdc
   14adc:	e3530002 	cmp	r3, #2
   14ae0:	13a0001e 	movne	r0, #30
   14ae4:	1affffd9 	bne	14a50 <cmd_phy_set+0x54>
   14ae8:	eb005cfe 	bl	2bee8 <ble_hs_lock_nested>
   14aec:	e1a00007 	mov	r0, r7
   14af0:	eb005a7b 	bl	2b4e4 <ble_hs_conn_find>
   14af4:	e1a08000 	mov	r8, r0
   14af8:	eb005cf6 	bl	2bed8 <ble_hs_unlock_nested>
   14afc:	e3580000 	cmp	r8, #0
   14b00:	03a00007 	moveq	r0, #7
   14b04:	0affffd1 	beq	14a50 <cmd_phy_set+0x54>
   14b08:	e3560007 	cmp	r6, #7
   14b0c:	93550007 	cmpls	r5, #7
   14b10:	83a03001 	movhi	r3, #1
   14b14:	93a03000 	movls	r3, #0
   14b18:	e3540002 	cmp	r4, #2
   14b1c:	83833001 	orrhi	r3, r3, #1
   14b20:	e3530000 	cmp	r3, #0
   14b24:	13a00012 	movne	r0, #18
   14b28:	1affffc8 	bne	14a50 <cmd_phy_set+0x54>
   14b2c:	e3560000 	cmp	r6, #0
   14b30:	e58d3012 	str	r3, [sp, #18]
   14b34:	15cd6013 	strbne	r6, [sp, #19]
   14b38:	e3a02007 	mov	r2, #7
   14b3c:	03a03001 	moveq	r3, #1
   14b40:	05cd3012 	strbeq	r3, [sp, #18]
   14b44:	e3550000 	cmp	r5, #0
   14b48:	e28d1010 	add	r1, sp, #16
   14b4c:	e3020032 	movw	r0, #8242	; 0x2032
   14b50:	e1cd71b0 	strh	r7, [sp, #16]
   14b54:	05dd3012 	ldrbeq	r3, [sp, #18]
   14b58:	15cd5014 	strbne	r5, [sp, #20]
   14b5c:	03833002 	orreq	r3, r3, #2
   14b60:	e1cd41b5 	strh	r4, [sp, #21]
   14b64:	05cd3012 	strbeq	r3, [sp, #18]
   14b68:	e3a03000 	mov	r3, #0
   14b6c:	e58d3000 	str	r3, [sp]
   14b70:	eb005863 	bl	2ad04 <ble_hs_hci_cmd_tx>
   14b74:	eaffffb5 	b	14a50 <cmd_phy_set+0x54>
   14b78:	0002650f 	.word	0x0002650f
   14b7c:	00021b87 	.word	0x00021b87
   14b80:	0002212e 	.word	0x0002212e
   14b84:	00022123 	.word	0x00022123
   14b88:	00022134 	.word	0x00022134
   14b8c:	00022129 	.word	0x00022129
   14b90:	0002213a 	.word	0x0002213a
   14b94:	0002212b 	.word	0x0002212b
   14b98:	0003adf0 	.word	0x0003adf0

00014b9c <parse_arg_bool>:
   14b9c:	e1a03001 	mov	r3, r1
   14ba0:	e3a02001 	mov	r2, #1
   14ba4:	e92d4010 	push	{r4, lr}
   14ba8:	e3a01000 	mov	r1, #0
   14bac:	ebfffa9f 	bl	13630 <parse_arg_long_bounds>
   14bb0:	e6ef0070 	uxtb	r0, r0
   14bb4:	e8bd8010 	pop	{r4, pc}

00014bb8 <cmd_security_set_data>:
   14bb8:	e92d4073 	push	{r0, r1, r4, r5, r6, lr}
   14bbc:	e2811004 	add	r1, r1, #4
   14bc0:	e2400001 	sub	r0, r0, #1
   14bc4:	ebfff866 	bl	12d64 <parse_arg_all>
   14bc8:	e3500000 	cmp	r0, #0
   14bcc:	e1a04000 	mov	r4, r0
   14bd0:	e58d0004 	str	r0, [sp, #4]
   14bd4:	1a00005d 	bne	14d50 <cmd_security_set_data+0x198>
   14bd8:	e28d6004 	add	r6, sp, #4
   14bdc:	e59f0208 	ldr	r0, [pc, #520]	; 14dec <cmd_security_set_data+0x234>
   14be0:	e1a01006 	mov	r1, r6
   14be4:	e08f0000 	add	r0, pc, r0
   14be8:	ebffffeb 	bl	14b9c <parse_arg_bool>
   14bec:	e59d3004 	ldr	r3, [sp, #4]
   14bf0:	e3530000 	cmp	r3, #0
   14bf4:	1a00004e 	bne	14d34 <cmd_security_set_data+0x17c>
   14bf8:	e59f31f0 	ldr	r3, [pc, #496]	; 14df0 <cmd_security_set_data+0x238>
   14bfc:	e3a05001 	mov	r5, #1
   14c00:	e08f3003 	add	r3, pc, r3
   14c04:	e5d32009 	ldrb	r2, [r3, #9]
   14c08:	e7c02010 	bfi	r2, r0, #0, #1
   14c0c:	e5c32009 	strb	r2, [r3, #9]
   14c10:	e59f01dc 	ldr	r0, [pc, #476]	; 14df4 <cmd_security_set_data+0x23c>
   14c14:	e1a01006 	mov	r1, r6
   14c18:	e08f0000 	add	r0, pc, r0
   14c1c:	ebffffde 	bl	14b9c <parse_arg_bool>
   14c20:	e59d3004 	ldr	r3, [sp, #4]
   14c24:	e3530000 	cmp	r3, #0
   14c28:	1a00004b 	bne	14d5c <cmd_security_set_data+0x1a4>
   14c2c:	e59f31c4 	ldr	r3, [pc, #452]	; 14df8 <cmd_security_set_data+0x240>
   14c30:	e2855001 	add	r5, r5, #1
   14c34:	e08f3003 	add	r3, pc, r3
   14c38:	e5d32009 	ldrb	r2, [r3, #9]
   14c3c:	e7c22110 	bfi	r2, r0, #2, #1
   14c40:	e5c32009 	strb	r2, [r3, #9]
   14c44:	e59f01b0 	ldr	r0, [pc, #432]	; 14dfc <cmd_security_set_data+0x244>
   14c48:	e1a01006 	mov	r1, r6
   14c4c:	e08f0000 	add	r0, pc, r0
   14c50:	ebfffc0b 	bl	13c84 <parse_arg_uint8>
   14c54:	e59d3004 	ldr	r3, [sp, #4]
   14c58:	e3530000 	cmp	r3, #0
   14c5c:	1a000043 	bne	14d70 <cmd_security_set_data+0x1b8>
   14c60:	e59f3198 	ldr	r3, [pc, #408]	; 14e00 <cmd_security_set_data+0x248>
   14c64:	e2855001 	add	r5, r5, #1
   14c68:	e08f3003 	add	r3, pc, r3
   14c6c:	e5c30008 	strb	r0, [r3, #8]
   14c70:	e59f018c 	ldr	r0, [pc, #396]	; 14e04 <cmd_security_set_data+0x24c>
   14c74:	e1a01006 	mov	r1, r6
   14c78:	e08f0000 	add	r0, pc, r0
   14c7c:	ebfffc00 	bl	13c84 <parse_arg_uint8>
   14c80:	e59d3004 	ldr	r3, [sp, #4]
   14c84:	e3530000 	cmp	r3, #0
   14c88:	1a00003d 	bne	14d84 <cmd_security_set_data+0x1cc>
   14c8c:	e59f3174 	ldr	r3, [pc, #372]	; 14e08 <cmd_security_set_data+0x250>
   14c90:	e2855001 	add	r5, r5, #1
   14c94:	e08f3003 	add	r3, pc, r3
   14c98:	e5c3000a 	strb	r0, [r3, #10]
   14c9c:	e59f0168 	ldr	r0, [pc, #360]	; 14e0c <cmd_security_set_data+0x254>
   14ca0:	e1a01006 	mov	r1, r6
   14ca4:	e08f0000 	add	r0, pc, r0
   14ca8:	ebfffbf5 	bl	13c84 <parse_arg_uint8>
   14cac:	e59d3004 	ldr	r3, [sp, #4]
   14cb0:	e3530000 	cmp	r3, #0
   14cb4:	1a000037 	bne	14d98 <cmd_security_set_data+0x1e0>
   14cb8:	e59f3150 	ldr	r3, [pc, #336]	; 14e10 <cmd_security_set_data+0x258>
   14cbc:	e2855001 	add	r5, r5, #1
   14cc0:	e08f3003 	add	r3, pc, r3
   14cc4:	e5c3000b 	strb	r0, [r3, #11]
   14cc8:	e59f0144 	ldr	r0, [pc, #324]	; 14e14 <cmd_security_set_data+0x25c>
   14ccc:	e1a01006 	mov	r1, r6
   14cd0:	e08f0000 	add	r0, pc, r0
   14cd4:	ebffffb0 	bl	14b9c <parse_arg_bool>
   14cd8:	e59d3004 	ldr	r3, [sp, #4]
   14cdc:	e3530000 	cmp	r3, #0
   14ce0:	1a000031 	bne	14dac <cmd_security_set_data+0x1f4>
   14ce4:	e59f312c 	ldr	r3, [pc, #300]	; 14e18 <cmd_security_set_data+0x260>
   14ce8:	e2855001 	add	r5, r5, #1
   14cec:	e08f3003 	add	r3, pc, r3
   14cf0:	e5d32009 	ldrb	r2, [r3, #9]
   14cf4:	e7c12090 	bfi	r2, r0, #1, #1
   14cf8:	e5c32009 	strb	r2, [r3, #9]
   14cfc:	e59f0118 	ldr	r0, [pc, #280]	; 14e1c <cmd_security_set_data+0x264>
   14d00:	e1a01006 	mov	r1, r6
   14d04:	e08f0000 	add	r0, pc, r0
   14d08:	ebffffa3 	bl	14b9c <parse_arg_bool>
   14d0c:	e59d3004 	ldr	r3, [sp, #4]
   14d10:	e3530000 	cmp	r3, #0
   14d14:	1a000029 	bne	14dc0 <cmd_security_set_data+0x208>
   14d18:	e59f2100 	ldr	r2, [pc, #256]	; 14e20 <cmd_security_set_data+0x268>
   14d1c:	e1a04003 	mov	r4, r3
   14d20:	e08f2002 	add	r2, pc, r2
   14d24:	e5d21009 	ldrb	r1, [r2, #9]
   14d28:	e7c31190 	bfi	r1, r0, #3, #1
   14d2c:	e5c21009 	strb	r1, [r2, #9]
   14d30:	ea000006 	b	14d50 <cmd_security_set_data+0x198>
   14d34:	e3530002 	cmp	r3, #2
   14d38:	01a05004 	moveq	r5, r4
   14d3c:	0affffb3 	beq	14c10 <cmd_security_set_data+0x58>
   14d40:	e59f00dc 	ldr	r0, [pc, #220]	; 14e24 <cmd_security_set_data+0x26c>
   14d44:	e08f0000 	add	r0, pc, r0
   14d48:	ebfff310 	bl	11990 <puts@plt>
   14d4c:	e59d4004 	ldr	r4, [sp, #4]
   14d50:	e1a00004 	mov	r0, r4
   14d54:	e28dd008 	add	sp, sp, #8
   14d58:	e8bd8070 	pop	{r4, r5, r6, pc}
   14d5c:	e3530002 	cmp	r3, #2
   14d60:	0affffb7 	beq	14c44 <cmd_security_set_data+0x8c>
   14d64:	e59f00bc 	ldr	r0, [pc, #188]	; 14e28 <cmd_security_set_data+0x270>
   14d68:	e08f0000 	add	r0, pc, r0
   14d6c:	eafffff5 	b	14d48 <cmd_security_set_data+0x190>
   14d70:	e3530002 	cmp	r3, #2
   14d74:	0affffbd 	beq	14c70 <cmd_security_set_data+0xb8>
   14d78:	e59f00ac 	ldr	r0, [pc, #172]	; 14e2c <cmd_security_set_data+0x274>
   14d7c:	e08f0000 	add	r0, pc, r0
   14d80:	eafffff0 	b	14d48 <cmd_security_set_data+0x190>
   14d84:	e3530002 	cmp	r3, #2
   14d88:	0affffc3 	beq	14c9c <cmd_security_set_data+0xe4>
   14d8c:	e59f009c 	ldr	r0, [pc, #156]	; 14e30 <cmd_security_set_data+0x278>
   14d90:	e08f0000 	add	r0, pc, r0
   14d94:	eaffffeb 	b	14d48 <cmd_security_set_data+0x190>
   14d98:	e3530002 	cmp	r3, #2
   14d9c:	0affffc9 	beq	14cc8 <cmd_security_set_data+0x110>
   14da0:	e59f008c 	ldr	r0, [pc, #140]	; 14e34 <cmd_security_set_data+0x27c>
   14da4:	e08f0000 	add	r0, pc, r0
   14da8:	eaffffe6 	b	14d48 <cmd_security_set_data+0x190>
   14dac:	e3530002 	cmp	r3, #2
   14db0:	0affffd1 	beq	14cfc <cmd_security_set_data+0x144>
   14db4:	e59f007c 	ldr	r0, [pc, #124]	; 14e38 <cmd_security_set_data+0x280>
   14db8:	e08f0000 	add	r0, pc, r0
   14dbc:	eaffffe1 	b	14d48 <cmd_security_set_data+0x190>
   14dc0:	e3530002 	cmp	r3, #2
   14dc4:	159f0070 	ldrne	r0, [pc, #112]	; 14e3c <cmd_security_set_data+0x284>
   14dc8:	108f0000 	addne	r0, pc, r0
   14dcc:	1affffdd 	bne	14d48 <cmd_security_set_data+0x190>
   14dd0:	e3550000 	cmp	r5, #0
   14dd4:	1affffdd 	bne	14d50 <cmd_security_set_data+0x198>
   14dd8:	e59f0060 	ldr	r0, [pc, #96]	; 14e40 <cmd_security_set_data+0x288>
   14ddc:	e3e04000 	mvn	r4, #0
   14de0:	e08f0000 	add	r0, pc, r0
   14de4:	ebfff2e9 	bl	11990 <puts@plt>
   14de8:	eaffffd8 	b	14d50 <cmd_security_set_data+0x198>
   14dec:	0002202c 	.word	0x0002202c
   14df0:	0003a574 	.word	0x0003a574
   14df4:	0002201e 	.word	0x0002201e
   14df8:	0003a540 	.word	0x0003a540
   14dfc:	00022012 	.word	0x00022012
   14e00:	0003a50c 	.word	0x0003a50c
   14e04:	0002201a 	.word	0x0002201a
   14e08:	0003a4e0 	.word	0x0003a4e0
   14e0c:	0002201c 	.word	0x0002201c
   14e10:	0003a4b4 	.word	0x0003a4b4
   14e14:	00022022 	.word	0x00022022
   14e18:	0003a488 	.word	0x0003a488
   14e1c:	000264b9 	.word	0x000264b9
   14e20:	0003a454 	.word	0x0003a454
   14e24:	00021ed5 	.word	0x00021ed5
   14e28:	00021ed8 	.word	0x00021ed8
   14e2c:	00021ef2 	.word	0x00021ef2
   14e30:	00021f0f 	.word	0x00021f0f
   14e34:	00021f2b 	.word	0x00021f2b
   14e38:	00021f42 	.word	0x00021f42
   14e3c:	00021f4e 	.word	0x00021f4e
   14e40:	00021f4d 	.word	0x00021f4d

00014e44 <cmd_ble_ce_test>:
   14e44:	e92d407f 	push	{r0, r1, r2, r3, r4, r5, r6, lr}
   14e48:	e2811004 	add	r1, r1, #4
   14e4c:	e2400001 	sub	r0, r0, #1
   14e50:	ebfff7c3 	bl	12d64 <parse_arg_all>
   14e54:	e3500000 	cmp	r0, #0
   14e58:	e1a04000 	mov	r4, r0
   14e5c:	e58d000c 	str	r0, [sp, #12]
   14e60:	1a00000c 	bne	14e98 <cmd_ble_ce_test+0x54>
   14e64:	e28d500c 	add	r5, sp, #12
   14e68:	e59f00b0 	ldr	r0, [pc, #176]	; 14f20 <cmd_ble_ce_test+0xdc>
   14e6c:	e1a01005 	mov	r1, r5
   14e70:	e08f0000 	add	r0, pc, r0
   14e74:	ebffff48 	bl	14b9c <parse_arg_bool>
   14e78:	e59d400c 	ldr	r4, [sp, #12]
   14e7c:	e3540000 	cmp	r4, #0
   14e80:	e1a06000 	mov	r6, r0
   14e84:	0a000006 	beq	14ea4 <cmd_ble_ce_test+0x60>
   14e88:	e59f0094 	ldr	r0, [pc, #148]	; 14f24 <cmd_ble_ce_test+0xe0>
   14e8c:	e08f0000 	add	r0, pc, r0
   14e90:	ebfff2be 	bl	11990 <puts@plt>
   14e94:	e59d400c 	ldr	r4, [sp, #12]
   14e98:	e1a00004 	mov	r0, r4
   14e9c:	e28dd010 	add	sp, sp, #16
   14ea0:	e8bd8070 	pop	{r4, r5, r6, pc}
   14ea4:	e59f007c 	ldr	r0, [pc, #124]	; 14f28 <cmd_ble_ce_test+0xe4>
   14ea8:	e1a03005 	mov	r3, r5
   14eac:	e3e02031 	mvn	r2, #49	; 0x31
   14eb0:	e3e0104f 	mvn	r1, #79	; 0x4f
   14eb4:	e08f0000 	add	r0, pc, r0
   14eb8:	ebfff9dc 	bl	13630 <parse_arg_long_bounds>
   14ebc:	e59d300c 	ldr	r3, [sp, #12]
   14ec0:	e3530000 	cmp	r3, #0
   14ec4:	06af4070 	sxtbeq	r4, r0
   14ec8:	0a000003 	beq	14edc <cmd_ble_ce_test+0x98>
   14ecc:	e3530002 	cmp	r3, #2
   14ed0:	159f0054 	ldrne	r0, [pc, #84]	; 14f2c <cmd_ble_ce_test+0xe8>
   14ed4:	108f0000 	addne	r0, pc, r0
   14ed8:	1affffec 	bne	14e90 <cmd_ble_ce_test+0x4c>
   14edc:	e3a03000 	mov	r3, #0
   14ee0:	e3a02002 	mov	r2, #2
   14ee4:	e58d3000 	str	r3, [sp]
   14ee8:	e28d1008 	add	r1, sp, #8
   14eec:	e30f0f09 	movw	r0, #65289	; 0xff09
   14ef0:	e5cd4009 	strb	r4, [sp, #9]
   14ef4:	e5cd6008 	strb	r6, [sp, #8]
   14ef8:	eb005781 	bl	2ad04 <ble_hs_hci_cmd_tx>
   14efc:	e2504000 	subs	r4, r0, #0
   14f00:	1a000003 	bne	14f14 <cmd_ble_ce_test+0xd0>
   14f04:	e59f0024 	ldr	r0, [pc, #36]	; 14f30 <cmd_ble_ce_test+0xec>
   14f08:	e08f0000 	add	r0, pc, r0
   14f0c:	ebfff29f 	bl	11990 <puts@plt>
   14f10:	eaffffe0 	b	14e98 <cmd_ble_ce_test+0x54>
   14f14:	e59f0018 	ldr	r0, [pc, #24]	; 14f34 <cmd_ble_ce_test+0xf0>
   14f18:	e08f0000 	add	r0, pc, r0
   14f1c:	eafffffa 	b	14f0c <cmd_ble_ce_test+0xc8>
   14f20:	000263de 	.word	0x000263de
   14f24:	00021ec4 	.word	0x00021ec4
   14f28:	00025dde 	.word	0x00025dde
   14f2c:	00021e8f 	.word	0x00021e8f
   14f30:	00021e70 	.word	0x00021e70
   14f34:	00021e79 	.word	0x00021e79

00014f38 <print_uuid>:
   14f38:	e92d4010 	push	{r4, lr}
   14f3c:	e24dd028 	sub	sp, sp, #40	; 0x28
   14f40:	e1a0400d 	mov	r4, sp
   14f44:	e1a01004 	mov	r1, r4
   14f48:	eb003c42 	bl	24058 <ble_uuid_to_str>
   14f4c:	e59f0010 	ldr	r0, [pc, #16]	; 14f64 <print_uuid+0x2c>
   14f50:	e1a01004 	mov	r1, r4
   14f54:	e08f0000 	add	r0, pc, r0
   14f58:	ebfff253 	bl	118ac <printf@plt>
   14f5c:	e28dd028 	add	sp, sp, #40	; 0x28
   14f60:	e8bd8010 	pop	{r4, pc}
   14f64:	00027bdf 	.word	0x00027bdf

00014f68 <gatt_svr_register_cb>:
   14f68:	e52de004 	push	{lr}		; (str lr, [sp, #-4]!)
   14f6c:	e24dd02c 	sub	sp, sp, #44	; 0x2c
   14f70:	e5d03000 	ldrb	r3, [r0]
   14f74:	e1a0100d 	mov	r1, sp
   14f78:	e3530002 	cmp	r3, #2
   14f7c:	0a00000e 	beq	14fbc <gatt_svr_register_cb+0x54>
   14f80:	e3530003 	cmp	r3, #3
   14f84:	0a00000c 	beq	14fbc <gatt_svr_register_cb+0x54>
   14f88:	e3530001 	cmp	r3, #1
   14f8c:	05903008 	ldreq	r3, [r0, #8]
   14f90:	05930004 	ldreq	r0, [r3, #4]
   14f94:	0a00000a 	beq	14fc4 <gatt_svr_register_cb+0x5c>
   14f98:	e59f3030 	ldr	r3, [pc, #48]	; 14fd0 <gatt_svr_register_cb+0x68>
   14f9c:	e300228a 	movw	r2, #650	; 0x28a
   14fa0:	e59f102c 	ldr	r1, [pc, #44]	; 14fd4 <gatt_svr_register_cb+0x6c>
   14fa4:	e59f002c 	ldr	r0, [pc, #44]	; 14fd8 <gatt_svr_register_cb+0x70>
   14fa8:	e08f3003 	add	r3, pc, r3
   14fac:	e2833008 	add	r3, r3, #8
   14fb0:	e08f1001 	add	r1, pc, r1
   14fb4:	e08f0000 	add	r0, pc, r0
   14fb8:	ebfff1ed 	bl	11774 <__assert_fail@plt>
   14fbc:	e5903008 	ldr	r3, [r0, #8]
   14fc0:	e5930000 	ldr	r0, [r3]
   14fc4:	eb003c23 	bl	24058 <ble_uuid_to_str>
   14fc8:	e28dd02c 	add	sp, sp, #44	; 0x2c
   14fcc:	e49df004 	pop	{pc}		; (ldr pc, [sp], #4)
   14fd0:	00021178 	.word	0x00021178
   14fd4:	00021df9 	.word	0x00021df9
   14fd8:	000256f0 	.word	0x000256f0

00014fdc <cmd_gatt_show>:
   14fdc:	e92d47f0 	push	{r4, r5, r6, r7, r8, r9, sl, lr}
   14fe0:	e3a08000 	mov	r8, #0
   14fe4:	e59f70dc 	ldr	r7, [pc, #220]	; 150c8 <cmd_gatt_show+0xec>
   14fe8:	e59f90dc 	ldr	r9, [pc, #220]	; 150cc <cmd_gatt_show+0xf0>
   14fec:	e08f7007 	add	r7, pc, r7
   14ff0:	e08f9009 	add	r9, pc, r9
   14ff4:	e59f30d4 	ldr	r3, [pc, #212]	; 150d0 <cmd_gatt_show+0xf4>
   14ff8:	e08f3003 	add	r3, pc, r3
   14ffc:	e5933030 	ldr	r3, [r3, #48]	; 0x30
   15000:	e1530008 	cmp	r3, r8
   15004:	ca000001 	bgt	15010 <cmd_gatt_show+0x34>
   15008:	e3a00000 	mov	r0, #0
   1500c:	e8bd87f0 	pop	{r4, r5, r6, r7, r8, r9, sl, pc}
   15010:	e59f00bc 	ldr	r0, [pc, #188]	; 150d4 <cmd_gatt_show+0xf8>
   15014:	e1d710b0 	ldrh	r1, [r7]
   15018:	e08f0000 	add	r0, pc, r0
   1501c:	ebfff222 	bl	118ac <printf@plt>
   15020:	e5975004 	ldr	r5, [r7, #4]
   15024:	e3550000 	cmp	r5, #0
   15028:	02888001 	addeq	r8, r8, #1
   1502c:	0287700c 	addeq	r7, r7, #12
   15030:	0affffef 	beq	14ff4 <cmd_gatt_show+0x18>
   15034:	e59f009c 	ldr	r0, [pc, #156]	; 150d8 <cmd_gatt_show+0xfc>
   15038:	e1d520b6 	ldrh	r2, [r5, #6]
   1503c:	e1d510b4 	ldrh	r1, [r5, #4]
   15040:	e08f0000 	add	r0, pc, r0
   15044:	ebfff218 	bl	118ac <printf@plt>
   15048:	e2850008 	add	r0, r5, #8
   1504c:	ebffffb9 	bl	14f38 <print_uuid>
   15050:	e59fa084 	ldr	sl, [pc, #132]	; 150dc <cmd_gatt_show+0x100>
   15054:	e3a0000a 	mov	r0, #10
   15058:	ebfff1a4 	bl	116f0 <putchar@plt>
   1505c:	e595401c 	ldr	r4, [r5, #28]
   15060:	e08fa00a 	add	sl, pc, sl
   15064:	e3540000 	cmp	r4, #0
   15068:	05955000 	ldreq	r5, [r5]
   1506c:	0affffec 	beq	15024 <cmd_gatt_show+0x48>
   15070:	e5d43008 	ldrb	r3, [r4, #8]
   15074:	e1a0000a 	mov	r0, sl
   15078:	e1d420b6 	ldrh	r2, [r4, #6]
   1507c:	e1d410b4 	ldrh	r1, [r4, #4]
   15080:	ebfff209 	bl	118ac <printf@plt>
   15084:	e284000c 	add	r0, r4, #12
   15088:	ebffffaa 	bl	14f38 <print_uuid>
   1508c:	e3a0000a 	mov	r0, #10
   15090:	ebfff196 	bl	116f0 <putchar@plt>
   15094:	e5946020 	ldr	r6, [r4, #32]
   15098:	e3560000 	cmp	r6, #0
   1509c:	05944000 	ldreq	r4, [r4]
   150a0:	0affffef 	beq	15064 <cmd_gatt_show+0x88>
   150a4:	e1d610b4 	ldrh	r1, [r6, #4]
   150a8:	e1a00009 	mov	r0, r9
   150ac:	ebfff1fe 	bl	118ac <printf@plt>
   150b0:	e2860008 	add	r0, r6, #8
   150b4:	ebffff9f 	bl	14f38 <print_uuid>
   150b8:	e3a0000a 	mov	r0, #10
   150bc:	ebfff18b 	bl	116f0 <putchar@plt>
   150c0:	e5966000 	ldr	r6, [r6]
   150c4:	eafffff3 	b	15098 <cmd_gatt_show+0xbc>
   150c8:	0003a8d8 	.word	0x0003a8d8
   150cc:	00021e96 	.word	0x00021e96
   150d0:	0003a8cc 	.word	0x0003a8cc
   150d4:	00021e01 	.word	0x00021e01
   150d8:	00021df0 	.word	0x00021df0
   150dc:	00021dea 	.word	0x00021dea

000150e0 <cmd_bt_shell_help>:
   150e0:	e92d41f0 	push	{r4, r5, r6, r7, r8, lr}
   150e4:	e3a05000 	mov	r5, #0
   150e8:	e59f4050 	ldr	r4, [pc, #80]	; 15140 <cmd_bt_shell_help+0x60>
   150ec:	e59f7050 	ldr	r7, [pc, #80]	; 15144 <cmd_bt_shell_help+0x64>
   150f0:	e59f6050 	ldr	r6, [pc, #80]	; 15148 <cmd_bt_shell_help+0x68>
   150f4:	e08f4004 	add	r4, pc, r4
   150f8:	e2844d05 	add	r4, r4, #320	; 0x140
   150fc:	e08f7007 	add	r7, pc, r7
   15100:	e08f6006 	add	r6, pc, r6
   15104:	e5941000 	ldr	r1, [r4]
   15108:	e1a00007 	mov	r0, r7
   1510c:	ebfff1e6 	bl	118ac <printf@plt>
   15110:	e5943008 	ldr	r3, [r4, #8]
   15114:	e1a00006 	mov	r0, r6
   15118:	e2855001 	add	r5, r5, #1
   1511c:	e284400c 	add	r4, r4, #12
   15120:	e5931000 	ldr	r1, [r3]
   15124:	ebfff1e0 	bl	118ac <printf@plt>
   15128:	e3a0000a 	mov	r0, #10
   1512c:	ebfff16f 	bl	116f0 <putchar@plt>
   15130:	e355004a 	cmp	r5, #74	; 0x4a
   15134:	1afffff2 	bne	15104 <cmd_bt_shell_help+0x24>
   15138:	e3a00000 	mov	r0, #0
   1513c:	e8bd81f0 	pop	{r4, r5, r6, r7, r8, pc}
   15140:	000385e8 	.word	0x000385e8
   15144:	00021daa 	.word	0x00021daa
   15148:	00027a33 	.word	0x00027a33

0001514c <cmd_show_oob_sc>:
   1514c:	e92d4070 	push	{r4, r5, r6, lr}
   15150:	e59f4088 	ldr	r4, [pc, #136]	; 151e0 <cmd_show_oob_sc+0x94>
   15154:	e59f0088 	ldr	r0, [pc, #136]	; 151e4 <cmd_show_oob_sc+0x98>
   15158:	e08f4004 	add	r4, pc, r4
   1515c:	e59f6084 	ldr	r6, [pc, #132]	; 151e8 <cmd_show_oob_sc+0x9c>
   15160:	e2845f93 	add	r5, r4, #588	; 0x24c
   15164:	e08f0000 	add	r0, pc, r0
   15168:	e2855002 	add	r5, r5, #2
   1516c:	e08f6006 	add	r6, pc, r6
   15170:	ebfff1cd 	bl	118ac <printf@plt>
   15174:	e3a01010 	mov	r1, #16
   15178:	e1a00005 	mov	r0, r5
   1517c:	e2844f9b 	add	r4, r4, #620	; 0x26c
   15180:	ebfff69d 	bl	12bfc <print_bytes>
   15184:	e1a00006 	mov	r0, r6
   15188:	ebfff1c7 	bl	118ac <printf@plt>
   1518c:	e3a01010 	mov	r1, #16
   15190:	e0850001 	add	r0, r5, r1
   15194:	e2844002 	add	r4, r4, #2
   15198:	ebfff697 	bl	12bfc <print_bytes>
   1519c:	e3a0000a 	mov	r0, #10
   151a0:	ebfff152 	bl	116f0 <putchar@plt>
   151a4:	e59f0040 	ldr	r0, [pc, #64]	; 151ec <cmd_show_oob_sc+0xa0>
   151a8:	e08f0000 	add	r0, pc, r0
   151ac:	ebfff1be 	bl	118ac <printf@plt>
   151b0:	e3a01010 	mov	r1, #16
   151b4:	e1a00004 	mov	r0, r4
   151b8:	ebfff68f 	bl	12bfc <print_bytes>
   151bc:	e1a00006 	mov	r0, r6
   151c0:	ebfff1b9 	bl	118ac <printf@plt>
   151c4:	e3a01010 	mov	r1, #16
   151c8:	e0840001 	add	r0, r4, r1
   151cc:	ebfff68a 	bl	12bfc <print_bytes>
   151d0:	e3a0000a 	mov	r0, #10
   151d4:	ebfff145 	bl	116f0 <putchar@plt>
   151d8:	e3a00000 	mov	r0, #0
   151dc:	e8bd8070 	pop	{r4, r5, r6, pc}
   151e0:	0003a76c 	.word	0x0003a76c
   151e4:	00021d47 	.word	0x00021d47
   151e8:	00021d52 	.word	0x00021d52
   151ec:	00021d1a 	.word	0x00021d1a

000151f0 <gatt_svr_long_access_test>:
   151f0:	e5923008 	ldr	r3, [r2, #8]
   151f4:	e92d4007 	push	{r0, r1, r2, lr}
   151f8:	e1a00002 	mov	r0, r2
   151fc:	e5932000 	ldr	r2, [r3]
   15200:	e5d2100e 	ldrb	r1, [r2, #14]
   15204:	e5d2300d 	ldrb	r3, [r2, #13]
   15208:	e1833401 	orr	r3, r3, r1, lsl #8
   1520c:	e6bf3073 	sxth	r3, r3
   15210:	e3530000 	cmp	r3, #0
   15214:	1a000008 	bne	1523c <gatt_svr_long_access_test+0x4c>
   15218:	e59f32a4 	ldr	r3, [pc, #676]	; 154c4 <gatt_svr_long_access_test+0x2d4>
   1521c:	e3a02e21 	mov	r2, #528	; 0x210
   15220:	e59f12a0 	ldr	r1, [pc, #672]	; 154c8 <gatt_svr_long_access_test+0x2d8>
   15224:	e59f02a0 	ldr	r0, [pc, #672]	; 154cc <gatt_svr_long_access_test+0x2dc>
   15228:	e08f3003 	add	r3, pc, r3
   1522c:	e283301d 	add	r3, r3, #29
   15230:	e08f1001 	add	r1, pc, r1
   15234:	e08f0000 	add	r0, pc, r0
   15238:	ebfff14d 	bl	11774 <__assert_fail@plt>
   1523c:	e2433012 	sub	r3, r3, #18
   15240:	e353000b 	cmp	r3, #11
   15244:	908ff103 	addls	pc, pc, r3, lsl #2
   15248:	ea000094 	b	154a0 <gatt_svr_long_access_test+0x2b0>
   1524c:	ea00000a 	b	1527c <gatt_svr_long_access_test+0x8c>
   15250:	ea000020 	b	152d8 <gatt_svr_long_access_test+0xe8>
   15254:	ea00001f 	b	152d8 <gatt_svr_long_access_test+0xe8>
   15258:	ea000035 	b	15334 <gatt_svr_long_access_test+0x144>
   1525c:	ea000042 	b	1536c <gatt_svr_long_access_test+0x17c>
   15260:	ea00005a 	b	153d0 <gatt_svr_long_access_test+0x1e0>
   15264:	ea000059 	b	153d0 <gatt_svr_long_access_test+0x1e0>
   15268:	ea000066 	b	15408 <gatt_svr_long_access_test+0x218>
   1526c:	ea000071 	b	15438 <gatt_svr_long_access_test+0x248>
   15270:	ea00007c 	b	15468 <gatt_svr_long_access_test+0x278>
   15274:	ea00007b 	b	15468 <gatt_svr_long_access_test+0x278>
   15278:	ea00007a 	b	15468 <gatt_svr_long_access_test+0x278>
   1527c:	e5d03000 	ldrb	r3, [r0]
   15280:	e3530000 	cmp	r3, #0
   15284:	0a000008 	beq	152ac <gatt_svr_long_access_test+0xbc>
   15288:	e59f3240 	ldr	r3, [pc, #576]	; 154d0 <gatt_svr_long_access_test+0x2e0>
   1528c:	e3a02f85 	mov	r2, #532	; 0x214
   15290:	e59f123c 	ldr	r1, [pc, #572]	; 154d4 <gatt_svr_long_access_test+0x2e4>
   15294:	e59f023c 	ldr	r0, [pc, #572]	; 154d8 <gatt_svr_long_access_test+0x2e8>
   15298:	e08f3003 	add	r3, pc, r3
   1529c:	e283301d 	add	r3, r3, #29
   152a0:	e08f1001 	add	r1, pc, r1
   152a4:	e08f0000 	add	r0, pc, r0
   152a8:	eaffffe2 	b	15238 <gatt_svr_long_access_test+0x48>
   152ac:	e59f1228 	ldr	r1, [pc, #552]	; 154dc <gatt_svr_long_access_test+0x2ec>
   152b0:	e3a0201e 	mov	r2, #30
   152b4:	e08f1001 	add	r1, pc, r1
   152b8:	e2811fa3 	add	r1, r1, #652	; 0x28c
   152bc:	e2811002 	add	r1, r1, #2
   152c0:	e5900004 	ldr	r0, [r0, #4]
   152c4:	eb0036e5 	bl	22e60 <os_mbuf_append>
   152c8:	e3500000 	cmp	r0, #0
   152cc:	13a00011 	movne	r0, #17
   152d0:	03a00000 	moveq	r0, #0
   152d4:	ea000014 	b	1532c <gatt_svr_long_access_test+0x13c>
   152d8:	e5d03000 	ldrb	r3, [r0]
   152dc:	e3530001 	cmp	r3, #1
   152e0:	0a000008 	beq	15308 <gatt_svr_long_access_test+0x118>
   152e4:	e59f31f4 	ldr	r3, [pc, #500]	; 154e0 <gatt_svr_long_access_test+0x2f0>
   152e8:	e300221b 	movw	r2, #539	; 0x21b
   152ec:	e59f11f0 	ldr	r1, [pc, #496]	; 154e4 <gatt_svr_long_access_test+0x2f4>
   152f0:	e59f01f0 	ldr	r0, [pc, #496]	; 154e8 <gatt_svr_long_access_test+0x2f8>
   152f4:	e08f3003 	add	r3, pc, r3
   152f8:	e283301d 	add	r3, r3, #29
   152fc:	e08f1001 	add	r1, pc, r1
   15300:	e08f0000 	add	r0, pc, r0
   15304:	eaffffcb 	b	15238 <gatt_svr_long_access_test+0x48>
   15308:	e59f31dc 	ldr	r3, [pc, #476]	; 154ec <gatt_svr_long_access_test+0x2fc>
   1530c:	e3a01000 	mov	r1, #0
   15310:	e58d1000 	str	r1, [sp]
   15314:	e08f3003 	add	r3, pc, r3
   15318:	e2833fa3 	add	r3, r3, #652	; 0x28c
   1531c:	e2833002 	add	r3, r3, #2
   15320:	e3a0201e 	mov	r2, #30
   15324:	e5900004 	ldr	r0, [r0, #4]
   15328:	ebfff50c 	bl	12760 <gatt_svr_chr_write>
   1532c:	e28dd00c 	add	sp, sp, #12
   15330:	e49df004 	pop	{pc}		; (ldr pc, [sp], #4)
   15334:	e5d03000 	ldrb	r3, [r0]
   15338:	e3530001 	cmp	r3, #1
   1533c:	0afffff1 	beq	15308 <gatt_svr_long_access_test+0x118>
   15340:	e3530000 	cmp	r3, #0
   15344:	0affffd8 	beq	152ac <gatt_svr_long_access_test+0xbc>
   15348:	e59f31a0 	ldr	r3, [pc, #416]	; 154f0 <gatt_svr_long_access_test+0x300>
   1534c:	e3a02f8b 	mov	r2, #556	; 0x22c
   15350:	e59f119c 	ldr	r1, [pc, #412]	; 154f4 <gatt_svr_long_access_test+0x304>
   15354:	e59f019c 	ldr	r0, [pc, #412]	; 154f8 <gatt_svr_long_access_test+0x308>
   15358:	e08f3003 	add	r3, pc, r3
   1535c:	e283301d 	add	r3, r3, #29
   15360:	e08f1001 	add	r1, pc, r1
   15364:	e08f0000 	add	r0, pc, r0
   15368:	eaffffb2 	b	15238 <gatt_svr_long_access_test+0x48>
   1536c:	e5d03000 	ldrb	r3, [r0]
   15370:	e3530001 	cmp	r3, #1
   15374:	1a000005 	bne	15390 <gatt_svr_long_access_test+0x1a0>
   15378:	e59f317c 	ldr	r3, [pc, #380]	; 154fc <gatt_svr_long_access_test+0x30c>
   1537c:	e3a01000 	mov	r1, #0
   15380:	e58d1000 	str	r1, [sp]
   15384:	e08f3003 	add	r3, pc, r3
   15388:	e2833fab 	add	r3, r3, #684	; 0x2ac
   1538c:	eaffffe3 	b	15320 <gatt_svr_long_access_test+0x130>
   15390:	e3530000 	cmp	r3, #0
   15394:	1a000004 	bne	153ac <gatt_svr_long_access_test+0x1bc>
   15398:	e59f1160 	ldr	r1, [pc, #352]	; 15500 <gatt_svr_long_access_test+0x310>
   1539c:	e3a0201e 	mov	r2, #30
   153a0:	e08f1001 	add	r1, pc, r1
   153a4:	e2811fab 	add	r1, r1, #684	; 0x2ac
   153a8:	eaffffc4 	b	152c0 <gatt_svr_long_access_test+0xd0>
   153ac:	e59f3150 	ldr	r3, [pc, #336]	; 15504 <gatt_svr_long_access_test+0x314>
   153b0:	e300223a 	movw	r2, #570	; 0x23a
   153b4:	e59f114c 	ldr	r1, [pc, #332]	; 15508 <gatt_svr_long_access_test+0x318>
   153b8:	e59f014c 	ldr	r0, [pc, #332]	; 1550c <gatt_svr_long_access_test+0x31c>
   153bc:	e08f3003 	add	r3, pc, r3
   153c0:	e283301d 	add	r3, r3, #29
   153c4:	e08f1001 	add	r1, pc, r1
   153c8:	e08f0000 	add	r0, pc, r0
   153cc:	eaffff99 	b	15238 <gatt_svr_long_access_test+0x48>
   153d0:	e5d03000 	ldrb	r3, [r0]
   153d4:	e3530001 	cmp	r3, #1
   153d8:	0affffca 	beq	15308 <gatt_svr_long_access_test+0x118>
   153dc:	e3530000 	cmp	r3, #0
   153e0:	0affffb1 	beq	152ac <gatt_svr_long_access_test+0xbc>
   153e4:	e59f3124 	ldr	r3, [pc, #292]	; 15510 <gatt_svr_long_access_test+0x320>
   153e8:	e3002249 	movw	r2, #585	; 0x249
   153ec:	e59f1120 	ldr	r1, [pc, #288]	; 15514 <gatt_svr_long_access_test+0x324>
   153f0:	e59f0120 	ldr	r0, [pc, #288]	; 15518 <gatt_svr_long_access_test+0x328>
   153f4:	e08f3003 	add	r3, pc, r3
   153f8:	e283301d 	add	r3, r3, #29
   153fc:	e08f1001 	add	r1, pc, r1
   15400:	e08f0000 	add	r0, pc, r0
   15404:	eaffff8b 	b	15238 <gatt_svr_long_access_test+0x48>
   15408:	e5d03000 	ldrb	r3, [r0]
   1540c:	e3530002 	cmp	r3, #2
   15410:	0affffa5 	beq	152ac <gatt_svr_long_access_test+0xbc>
   15414:	e59f3100 	ldr	r3, [pc, #256]	; 1551c <gatt_svr_long_access_test+0x32c>
   15418:	e300224d 	movw	r2, #589	; 0x24d
   1541c:	e59f10fc 	ldr	r1, [pc, #252]	; 15520 <gatt_svr_long_access_test+0x330>
   15420:	e59f00fc 	ldr	r0, [pc, #252]	; 15524 <gatt_svr_long_access_test+0x334>
   15424:	e08f3003 	add	r3, pc, r3
   15428:	e283301d 	add	r3, r3, #29
   1542c:	e08f1001 	add	r1, pc, r1
   15430:	e08f0000 	add	r0, pc, r0
   15434:	eaffff7f 	b	15238 <gatt_svr_long_access_test+0x48>
   15438:	e5d03000 	ldrb	r3, [r0]
   1543c:	e3530003 	cmp	r3, #3
   15440:	0affffb0 	beq	15308 <gatt_svr_long_access_test+0x118>
   15444:	e59f30dc 	ldr	r3, [pc, #220]	; 15528 <gatt_svr_long_access_test+0x338>
   15448:	e3002253 	movw	r2, #595	; 0x253
   1544c:	e59f10d8 	ldr	r1, [pc, #216]	; 1552c <gatt_svr_long_access_test+0x33c>
   15450:	e59f00d8 	ldr	r0, [pc, #216]	; 15530 <gatt_svr_long_access_test+0x340>
   15454:	e08f3003 	add	r3, pc, r3
   15458:	e283301d 	add	r3, r3, #29
   1545c:	e08f1001 	add	r1, pc, r1
   15460:	e08f0000 	add	r0, pc, r0
   15464:	eaffff73 	b	15238 <gatt_svr_long_access_test+0x48>
   15468:	e5d03000 	ldrb	r3, [r0]
   1546c:	e3530003 	cmp	r3, #3
   15470:	0affffa4 	beq	15308 <gatt_svr_long_access_test+0x118>
   15474:	e3530002 	cmp	r3, #2
   15478:	0affff8b 	beq	152ac <gatt_svr_long_access_test+0xbc>
   1547c:	e59f30b0 	ldr	r3, [pc, #176]	; 15534 <gatt_svr_long_access_test+0x344>
   15480:	e3002266 	movw	r2, #614	; 0x266
   15484:	e59f10ac 	ldr	r1, [pc, #172]	; 15538 <gatt_svr_long_access_test+0x348>
   15488:	e59f00ac 	ldr	r0, [pc, #172]	; 1553c <gatt_svr_long_access_test+0x34c>
   1548c:	e08f3003 	add	r3, pc, r3
   15490:	e283301d 	add	r3, r3, #29
   15494:	e08f1001 	add	r1, pc, r1
   15498:	e08f0000 	add	r0, pc, r0
   1549c:	eaffff65 	b	15238 <gatt_svr_long_access_test+0x48>
   154a0:	e59f3098 	ldr	r3, [pc, #152]	; 15540 <gatt_svr_long_access_test+0x350>
   154a4:	e300226a 	movw	r2, #618	; 0x26a
   154a8:	e59f1094 	ldr	r1, [pc, #148]	; 15544 <gatt_svr_long_access_test+0x354>
   154ac:	e59f0094 	ldr	r0, [pc, #148]	; 15548 <gatt_svr_long_access_test+0x358>
   154b0:	e08f3003 	add	r3, pc, r3
   154b4:	e283301d 	add	r3, r3, #29
   154b8:	e08f1001 	add	r1, pc, r1
   154bc:	e08f0000 	add	r0, pc, r0
   154c0:	eaffff5c 	b	15238 <gatt_svr_long_access_test+0x48>
   154c4:	00020ef8 	.word	0x00020ef8
   154c8:	00021b79 	.word	0x00021b79
   154cc:	00021ca2 	.word	0x00021ca2
   154d0:	00020e88 	.word	0x00020e88
   154d4:	00021b09 	.word	0x00021b09
   154d8:	00021c3e 	.word	0x00021c3e
   154dc:	0003a610 	.word	0x0003a610
   154e0:	00020e2c 	.word	0x00020e2c
   154e4:	00021aad 	.word	0x00021aad
   154e8:	00021c0a 	.word	0x00021c0a
   154ec:	0003a5b0 	.word	0x0003a5b0
   154f0:	00020dc8 	.word	0x00020dc8
   154f4:	00021a49 	.word	0x00021a49
   154f8:	00025340 	.word	0x00025340
   154fc:	0003a540 	.word	0x0003a540
   15500:	0003a524 	.word	0x0003a524
   15504:	00020d64 	.word	0x00020d64
   15508:	000219e5 	.word	0x000219e5
   1550c:	000252dc 	.word	0x000252dc
   15510:	00020d2c 	.word	0x00020d2c
   15514:	000219ad 	.word	0x000219ad
   15518:	000252a4 	.word	0x000252a4
   1551c:	00020cfc 	.word	0x00020cfc
   15520:	0002197d 	.word	0x0002197d
   15524:	00021b03 	.word	0x00021b03
   15528:	00020ccc 	.word	0x00020ccc
   1552c:	0002194d 	.word	0x0002194d
   15530:	00021afb 	.word	0x00021afb
   15534:	00020c94 	.word	0x00020c94
   15538:	00021915 	.word	0x00021915
   1553c:	0002520c 	.word	0x0002520c
   15540:	00020c70 	.word	0x00020c70
   15544:	000218f1 	.word	0x000218f1
   15548:	000251e8 	.word	0x000251e8

0001554c <gatt_svr_access_test>:
   1554c:	e92d4070 	push	{r4, r5, r6, lr}
   15550:	e24dde11 	sub	sp, sp, #272	; 0x110
   15554:	e28d3010 	add	r3, sp, #16
   15558:	e1a04002 	mov	r4, r2
   1555c:	e3a01000 	mov	r1, #0
   15560:	e3a020ff 	mov	r2, #255	; 0xff
   15564:	e1a00003 	mov	r0, r3
   15568:	ebfff078 	bl	11750 <memset@plt>
   1556c:	e3a02000 	mov	r2, #0
   15570:	e14020b2 	strh	r2, [r0, #-2]
   15574:	e1a03000 	mov	r3, r0
   15578:	e5942008 	ldr	r2, [r4, #8]
   1557c:	e5921000 	ldr	r1, [r2]
   15580:	e5d1000e 	ldrb	r0, [r1, #14]
   15584:	e5d1200d 	ldrb	r2, [r1, #13]
   15588:	e1822400 	orr	r2, r2, r0, lsl #8
   1558c:	e6bf2072 	sxth	r2, r2
   15590:	e6ff1072 	uxth	r1, r2
   15594:	e3510000 	cmp	r1, #0
   15598:	1a000008 	bne	155c0 <gatt_svr_access_test+0x74>
   1559c:	e59f3308 	ldr	r3, [pc, #776]	; 158ac <gatt_svr_access_test+0x360>
   155a0:	e30021a5 	movw	r2, #421	; 0x1a5
   155a4:	e59f1304 	ldr	r1, [pc, #772]	; 158b0 <gatt_svr_access_test+0x364>
   155a8:	e59f0304 	ldr	r0, [pc, #772]	; 158b4 <gatt_svr_access_test+0x368>
   155ac:	e08f3003 	add	r3, pc, r3
   155b0:	e2833037 	add	r3, r3, #55	; 0x37
   155b4:	e08f1001 	add	r1, pc, r1
   155b8:	e08f0000 	add	r0, pc, r0
   155bc:	ebfff06c 	bl	11774 <__assert_fail@plt>
   155c0:	e2422002 	sub	r2, r2, #2
   155c4:	e352001d 	cmp	r2, #29
   155c8:	908ff102 	addls	pc, pc, r2, lsl #2
   155cc:	ea0000ad 	b	15888 <gatt_svr_access_test+0x33c>
   155d0:	ea00001c 	b	15648 <gatt_svr_access_test+0xfc>
   155d4:	ea000032 	b	156a4 <gatt_svr_access_test+0x158>
   155d8:	ea000031 	b	156a4 <gatt_svr_access_test+0x158>
   155dc:	ea000030 	b	156a4 <gatt_svr_access_test+0x158>
   155e0:	ea000074 	b	157b8 <gatt_svr_access_test+0x26c>
   155e4:	ea000073 	b	157b8 <gatt_svr_access_test+0x26c>
   155e8:	ea000072 	b	157b8 <gatt_svr_access_test+0x26c>
   155ec:	ea00007f 	b	157f0 <gatt_svr_access_test+0x2a4>
   155f0:	ea00008a 	b	15820 <gatt_svr_access_test+0x2d4>
   155f4:	ea000095 	b	15850 <gatt_svr_access_test+0x304>
   155f8:	ea000094 	b	15850 <gatt_svr_access_test+0x304>
   155fc:	ea000093 	b	15850 <gatt_svr_access_test+0x304>
   15600:	ea0000a0 	b	15888 <gatt_svr_access_test+0x33c>
   15604:	ea00009f 	b	15888 <gatt_svr_access_test+0x33c>
   15608:	ea00009e 	b	15888 <gatt_svr_access_test+0x33c>
   1560c:	ea00009d 	b	15888 <gatt_svr_access_test+0x33c>
   15610:	ea00009c 	b	15888 <gatt_svr_access_test+0x33c>
   15614:	ea00009b 	b	15888 <gatt_svr_access_test+0x33c>
   15618:	ea00009a 	b	15888 <gatt_svr_access_test+0x33c>
   1561c:	ea000099 	b	15888 <gatt_svr_access_test+0x33c>
   15620:	ea000098 	b	15888 <gatt_svr_access_test+0x33c>
   15624:	ea000097 	b	15888 <gatt_svr_access_test+0x33c>
   15628:	ea000096 	b	15888 <gatt_svr_access_test+0x33c>
   1562c:	ea000095 	b	15888 <gatt_svr_access_test+0x33c>
   15630:	ea000094 	b	15888 <gatt_svr_access_test+0x33c>
   15634:	ea000093 	b	15888 <gatt_svr_access_test+0x33c>
   15638:	ea000092 	b	15888 <gatt_svr_access_test+0x33c>
   1563c:	ea000091 	b	15888 <gatt_svr_access_test+0x33c>
   15640:	ea000090 	b	15888 <gatt_svr_access_test+0x33c>
   15644:	ea00005b 	b	157b8 <gatt_svr_access_test+0x26c>
   15648:	e5d43000 	ldrb	r3, [r4]
   1564c:	e3530000 	cmp	r3, #0
   15650:	0a000008 	beq	15678 <gatt_svr_access_test+0x12c>
   15654:	e59f325c 	ldr	r3, [pc, #604]	; 158b8 <gatt_svr_access_test+0x36c>
   15658:	e30021a9 	movw	r2, #425	; 0x1a9
   1565c:	e59f1258 	ldr	r1, [pc, #600]	; 158bc <gatt_svr_access_test+0x370>
   15660:	e59f0258 	ldr	r0, [pc, #600]	; 158c0 <gatt_svr_access_test+0x374>
   15664:	e08f3003 	add	r3, pc, r3
   15668:	e2833037 	add	r3, r3, #55	; 0x37
   1566c:	e08f1001 	add	r1, pc, r1
   15670:	e08f0000 	add	r0, pc, r0
   15674:	eaffffd0 	b	155bc <gatt_svr_access_test+0x70>
   15678:	e59f1244 	ldr	r1, [pc, #580]	; 158c4 <gatt_svr_access_test+0x378>
   1567c:	e3a02001 	mov	r2, #1
   15680:	e5940004 	ldr	r0, [r4, #4]
   15684:	e08f1001 	add	r1, pc, r1
   15688:	e2811fb2 	add	r1, r1, #712	; 0x2c8
   1568c:	e2811002 	add	r1, r1, #2
   15690:	eb0035f2 	bl	22e60 <os_mbuf_append>
   15694:	e3500000 	cmp	r0, #0
   15698:	13a00011 	movne	r0, #17
   1569c:	e28dde11 	add	sp, sp, #272	; 0x110
   156a0:	e8bd8070 	pop	{r4, r5, r6, pc}
   156a4:	e3510005 	cmp	r1, #5
   156a8:	1a00002a 	bne	15758 <gatt_svr_access_test+0x20c>
   156ac:	e2435002 	sub	r5, r3, #2
   156b0:	e3a020ff 	mov	r2, #255	; 0xff
   156b4:	e58d5000 	str	r5, [sp]
   156b8:	e3a01000 	mov	r1, #0
   156bc:	e5940004 	ldr	r0, [r4, #4]
   156c0:	ebfff426 	bl	12760 <gatt_svr_chr_write>
   156c4:	e3500000 	cmp	r0, #0
   156c8:	1afffff3 	bne	1569c <gatt_svr_access_test+0x150>
   156cc:	e5d43000 	ldrb	r3, [r4]
   156d0:	e3530001 	cmp	r3, #1
   156d4:	0a000001 	beq	156e0 <gatt_svr_access_test+0x194>
   156d8:	e3a0000e 	mov	r0, #14
   156dc:	eaffffee 	b	1569c <gatt_svr_access_test+0x150>
   156e0:	e59f41e0 	ldr	r4, [pc, #480]	; 158c8 <gatt_svr_access_test+0x37c>
   156e4:	e1d530b0 	ldrh	r3, [r5]
   156e8:	e08f4004 	add	r4, pc, r4
   156ec:	e59422cc 	ldr	r2, [r4, #716]	; 0x2cc
   156f0:	e0833002 	add	r3, r3, r2
   156f4:	e58432cc 	str	r3, [r4, #716]	; 0x2cc
   156f8:	eb00799e 	bl	33d78 <ble_npl_time_get>
   156fc:	e59432d0 	ldr	r3, [r4, #720]	; 0x2d0
   15700:	e0400003 	sub	r0, r0, r3
   15704:	e58402d4 	str	r0, [r4, #724]	; 0x2d4
   15708:	e3500ffa 	cmp	r0, #1000	; 0x3e8
   1570c:	dafffff1 	ble	156d8 <gatt_svr_access_test+0x18c>
   15710:	eb007998 	bl	33d78 <ble_npl_time_get>
   15714:	e59422d8 	ldr	r2, [r4, #728]	; 0x2d8
   15718:	e59452cc 	ldr	r5, [r4, #716]	; 0x2cc
   1571c:	e59462d4 	ldr	r6, [r4, #724]	; 0x2d4
   15720:	e0455002 	sub	r5, r5, r2
   15724:	e1a01006 	mov	r1, r6
   15728:	e58402d0 	str	r0, [r4, #720]	; 0x2d0
   1572c:	e1a00185 	lsl	r0, r5, #3
   15730:	eb008150 	bl	35c78 <__udivsi3>
   15734:	e1a02005 	mov	r2, r5
   15738:	e1a01006 	mov	r1, r6
   1573c:	e1a03000 	mov	r3, r0
   15740:	e59f0184 	ldr	r0, [pc, #388]	; 158cc <gatt_svr_access_test+0x380>
   15744:	e08f0000 	add	r0, pc, r0
   15748:	ebfff057 	bl	118ac <printf@plt>
   1574c:	e59432cc 	ldr	r3, [r4, #716]	; 0x2cc
   15750:	e58432d8 	str	r3, [r4, #728]	; 0x2d8
   15754:	eaffffdf 	b	156d8 <gatt_svr_access_test+0x18c>
   15758:	e5d43000 	ldrb	r3, [r4]
   1575c:	e3530001 	cmp	r3, #1
   15760:	1a000009 	bne	1578c <gatt_svr_access_test+0x240>
   15764:	e59f3164 	ldr	r3, [pc, #356]	; 158d0 <gatt_svr_access_test+0x384>
   15768:	e3a01000 	mov	r1, #0
   1576c:	e3a02001 	mov	r2, #1
   15770:	e58d1000 	str	r1, [sp]
   15774:	e08f3003 	add	r3, pc, r3
   15778:	e5940004 	ldr	r0, [r4, #4]
   1577c:	e2833fb2 	add	r3, r3, #712	; 0x2c8
   15780:	e2833002 	add	r3, r3, #2
   15784:	ebfff3f5 	bl	12760 <gatt_svr_chr_write>
   15788:	eaffffc3 	b	1569c <gatt_svr_access_test+0x150>
   1578c:	e3530000 	cmp	r3, #0
   15790:	0affffb8 	beq	15678 <gatt_svr_access_test+0x12c>
   15794:	e59f3138 	ldr	r3, [pc, #312]	; 158d4 <gatt_svr_access_test+0x388>
   15798:	e3a02e1d 	mov	r2, #464	; 0x1d0
   1579c:	e59f1134 	ldr	r1, [pc, #308]	; 158d8 <gatt_svr_access_test+0x38c>
   157a0:	e59f0134 	ldr	r0, [pc, #308]	; 158dc <gatt_svr_access_test+0x390>
   157a4:	e08f3003 	add	r3, pc, r3
   157a8:	e2833037 	add	r3, r3, #55	; 0x37
   157ac:	e08f1001 	add	r1, pc, r1
   157b0:	e08f0000 	add	r0, pc, r0
   157b4:	eaffff80 	b	155bc <gatt_svr_access_test+0x70>
   157b8:	e5d43000 	ldrb	r3, [r4]
   157bc:	e3530001 	cmp	r3, #1
   157c0:	0affffe7 	beq	15764 <gatt_svr_access_test+0x218>
   157c4:	e3530000 	cmp	r3, #0
   157c8:	0affffaa 	beq	15678 <gatt_svr_access_test+0x12c>
   157cc:	e59f310c 	ldr	r3, [pc, #268]	; 158e0 <gatt_svr_access_test+0x394>
   157d0:	e30021e1 	movw	r2, #481	; 0x1e1
   157d4:	e59f1108 	ldr	r1, [pc, #264]	; 158e4 <gatt_svr_access_test+0x398>
   157d8:	e59f0108 	ldr	r0, [pc, #264]	; 158e8 <gatt_svr_access_test+0x39c>
   157dc:	e08f3003 	add	r3, pc, r3
   157e0:	e2833037 	add	r3, r3, #55	; 0x37
   157e4:	e08f1001 	add	r1, pc, r1
   157e8:	e08f0000 	add	r0, pc, r0
   157ec:	eaffff72 	b	155bc <gatt_svr_access_test+0x70>
   157f0:	e5d43000 	ldrb	r3, [r4]
   157f4:	e3530002 	cmp	r3, #2
   157f8:	0affff9e 	beq	15678 <gatt_svr_access_test+0x12c>
   157fc:	e59f30e8 	ldr	r3, [pc, #232]	; 158ec <gatt_svr_access_test+0x3a0>
   15800:	e3a02f79 	mov	r2, #484	; 0x1e4
   15804:	e59f10e4 	ldr	r1, [pc, #228]	; 158f0 <gatt_svr_access_test+0x3a4>
   15808:	e59f00e4 	ldr	r0, [pc, #228]	; 158f4 <gatt_svr_access_test+0x3a8>
   1580c:	e08f3003 	add	r3, pc, r3
   15810:	e2833037 	add	r3, r3, #55	; 0x37
   15814:	e08f1001 	add	r1, pc, r1
   15818:	e08f0000 	add	r0, pc, r0
   1581c:	eaffff66 	b	155bc <gatt_svr_access_test+0x70>
   15820:	e5d43000 	ldrb	r3, [r4]
   15824:	e3530003 	cmp	r3, #3
   15828:	0affffcd 	beq	15764 <gatt_svr_access_test+0x218>
   1582c:	e59f30c4 	ldr	r3, [pc, #196]	; 158f8 <gatt_svr_access_test+0x3ac>
   15830:	e30021ea 	movw	r2, #490	; 0x1ea
   15834:	e59f10c0 	ldr	r1, [pc, #192]	; 158fc <gatt_svr_access_test+0x3b0>
   15838:	e59f00c0 	ldr	r0, [pc, #192]	; 15900 <gatt_svr_access_test+0x3b4>
   1583c:	e08f3003 	add	r3, pc, r3
   15840:	e2833037 	add	r3, r3, #55	; 0x37
   15844:	e08f1001 	add	r1, pc, r1
   15848:	e08f0000 	add	r0, pc, r0
   1584c:	eaffff5a 	b	155bc <gatt_svr_access_test+0x70>
   15850:	e5d43000 	ldrb	r3, [r4]
   15854:	e3530003 	cmp	r3, #3
   15858:	0affffc1 	beq	15764 <gatt_svr_access_test+0x218>
   1585c:	e3530002 	cmp	r3, #2
   15860:	0affff84 	beq	15678 <gatt_svr_access_test+0x12c>
   15864:	e59f3098 	ldr	r3, [pc, #152]	; 15904 <gatt_svr_access_test+0x3b8>
   15868:	e30021fd 	movw	r2, #509	; 0x1fd
   1586c:	e59f1094 	ldr	r1, [pc, #148]	; 15908 <gatt_svr_access_test+0x3bc>
   15870:	e59f0094 	ldr	r0, [pc, #148]	; 1590c <gatt_svr_access_test+0x3c0>
   15874:	e08f3003 	add	r3, pc, r3
   15878:	e2833037 	add	r3, r3, #55	; 0x37
   1587c:	e08f1001 	add	r1, pc, r1
   15880:	e08f0000 	add	r0, pc, r0
   15884:	eaffff4c 	b	155bc <gatt_svr_access_test+0x70>
   15888:	e59f3080 	ldr	r3, [pc, #128]	; 15910 <gatt_svr_access_test+0x3c4>
   1588c:	e3a02c02 	mov	r2, #512	; 0x200
   15890:	e59f107c 	ldr	r1, [pc, #124]	; 15914 <gatt_svr_access_test+0x3c8>
   15894:	e59f007c 	ldr	r0, [pc, #124]	; 15918 <gatt_svr_access_test+0x3cc>
   15898:	e08f3003 	add	r3, pc, r3
   1589c:	e2833037 	add	r3, r3, #55	; 0x37
   158a0:	e08f1001 	add	r1, pc, r1
   158a4:	e08f0000 	add	r0, pc, r0
   158a8:	eaffff43 	b	155bc <gatt_svr_access_test+0x70>
   158ac:	00020b74 	.word	0x00020b74
   158b0:	000217f5 	.word	0x000217f5
   158b4:	0002191e 	.word	0x0002191e
   158b8:	00020abc 	.word	0x00020abc
   158bc:	0002173d 	.word	0x0002173d
   158c0:	00021872 	.word	0x00021872
   158c4:	0003a240 	.word	0x0003a240
   158c8:	0003a1dc 	.word	0x0003a1dc
   158cc:	00021840 	.word	0x00021840
   158d0:	0003a150 	.word	0x0003a150
   158d4:	0002097c 	.word	0x0002097c
   158d8:	000215fd 	.word	0x000215fd
   158dc:	00024ef4 	.word	0x00024ef4
   158e0:	00020944 	.word	0x00020944
   158e4:	000215c5 	.word	0x000215c5
   158e8:	00024ebc 	.word	0x00024ebc
   158ec:	00020914 	.word	0x00020914
   158f0:	00021595 	.word	0x00021595
   158f4:	0002171b 	.word	0x0002171b
   158f8:	000208e4 	.word	0x000208e4
   158fc:	00021565 	.word	0x00021565
   15900:	00021713 	.word	0x00021713
   15904:	000208ac 	.word	0x000208ac
   15908:	0002152d 	.word	0x0002152d
   1590c:	00024e24 	.word	0x00024e24
   15910:	00020888 	.word	0x00020888
   15914:	00021509 	.word	0x00021509
   15918:	00024e00 	.word	0x00024e00

0001591c <gatt_svr_chr_access_sec_test>:
   1591c:	e92d407f 	push	{r0, r1, r2, r3, r4, r5, r6, lr}
   15920:	e1a04002 	mov	r4, r2
   15924:	e5923008 	ldr	r3, [r2, #8]
   15928:	e59f5120 	ldr	r5, [pc, #288]	; 15a50 <gatt_svr_chr_access_sec_test+0x134>
   1592c:	e5936000 	ldr	r6, [r3]
   15930:	e08f5005 	add	r5, pc, r5
   15934:	e285104c 	add	r1, r5, #76	; 0x4c
   15938:	e1a00006 	mov	r0, r6
   1593c:	eb003a03 	bl	24150 <ble_uuid_cmp>
   15940:	e3500000 	cmp	r0, #0
   15944:	1a000013 	bne	15998 <gatt_svr_chr_access_sec_test+0x7c>
   15948:	e5d43000 	ldrb	r3, [r4]
   1594c:	e3530000 	cmp	r3, #0
   15950:	0a000006 	beq	15970 <gatt_svr_chr_access_sec_test+0x54>
   15954:	e59f10f8 	ldr	r1, [pc, #248]	; 15a54 <gatt_svr_chr_access_sec_test+0x138>
   15958:	e285305d 	add	r3, r5, #93	; 0x5d
   1595c:	e59f00f4 	ldr	r0, [pc, #244]	; 15a58 <gatt_svr_chr_access_sec_test+0x13c>
   15960:	e300215e 	movw	r2, #350	; 0x15e
   15964:	e08f1001 	add	r1, pc, r1
   15968:	e08f0000 	add	r0, pc, r0
   1596c:	ebffef80 	bl	11774 <__assert_fail@plt>
   15970:	ebfff00f 	bl	119b4 <rand@plt>
   15974:	e28d100c 	add	r1, sp, #12
   15978:	e3a02004 	mov	r2, #4
   1597c:	e58d000c 	str	r0, [sp, #12]
   15980:	e5940004 	ldr	r0, [r4, #4]
   15984:	eb003535 	bl	22e60 <os_mbuf_append>
   15988:	e3500000 	cmp	r0, #0
   1598c:	13a00011 	movne	r0, #17
   15990:	03a00000 	moveq	r0, #0
   15994:	ea000024 	b	15a2c <gatt_svr_chr_access_sec_test+0x110>
   15998:	e285107a 	add	r1, r5, #122	; 0x7a
   1599c:	e1a00006 	mov	r0, r6
   159a0:	eb0039ea 	bl	24150 <ble_uuid_cmp>
   159a4:	e3500000 	cmp	r0, #0
   159a8:	0a000004 	beq	159c0 <gatt_svr_chr_access_sec_test+0xa4>
   159ac:	e285108b 	add	r1, r5, #139	; 0x8b
   159b0:	e1a00006 	mov	r0, r6
   159b4:	eb0039e5 	bl	24150 <ble_uuid_cmp>
   159b8:	e3500000 	cmp	r0, #0
   159bc:	1a00001c 	bne	15a34 <gatt_svr_chr_access_sec_test+0x118>
   159c0:	e5d42000 	ldrb	r2, [r4]
   159c4:	e3520000 	cmp	r2, #0
   159c8:	0a00000a 	beq	159f8 <gatt_svr_chr_access_sec_test+0xdc>
   159cc:	e3520001 	cmp	r2, #1
   159d0:	0a00000d 	beq	15a0c <gatt_svr_chr_access_sec_test+0xf0>
   159d4:	e59f3080 	ldr	r3, [pc, #128]	; 15a5c <gatt_svr_chr_access_sec_test+0x140>
   159d8:	e3002176 	movw	r2, #374	; 0x176
   159dc:	e59f107c 	ldr	r1, [pc, #124]	; 15a60 <gatt_svr_chr_access_sec_test+0x144>
   159e0:	e59f007c 	ldr	r0, [pc, #124]	; 15a64 <gatt_svr_chr_access_sec_test+0x148>
   159e4:	e08f3003 	add	r3, pc, r3
   159e8:	e283305d 	add	r3, r3, #93	; 0x5d
   159ec:	e08f1001 	add	r1, pc, r1
   159f0:	e08f0000 	add	r0, pc, r0
   159f4:	eaffffdc 	b	1596c <gatt_svr_chr_access_sec_test+0x50>
   159f8:	e59f1068 	ldr	r1, [pc, #104]	; 15a68 <gatt_svr_chr_access_sec_test+0x14c>
   159fc:	e3a02001 	mov	r2, #1
   15a00:	e08f1001 	add	r1, pc, r1
   15a04:	e2811fb7 	add	r1, r1, #732	; 0x2dc
   15a08:	eaffffdc 	b	15980 <gatt_svr_chr_access_sec_test+0x64>
   15a0c:	e3a03000 	mov	r3, #0
   15a10:	e58d3000 	str	r3, [sp]
   15a14:	e59f3050 	ldr	r3, [pc, #80]	; 15a6c <gatt_svr_chr_access_sec_test+0x150>
   15a18:	e1a01002 	mov	r1, r2
   15a1c:	e5940004 	ldr	r0, [r4, #4]
   15a20:	e08f3003 	add	r3, pc, r3
   15a24:	e2833fb7 	add	r3, r3, #732	; 0x2dc
   15a28:	ebfff34c 	bl	12760 <gatt_svr_chr_write>
   15a2c:	e28dd010 	add	sp, sp, #16
   15a30:	e8bd8070 	pop	{r4, r5, r6, pc}
   15a34:	e59f1034 	ldr	r1, [pc, #52]	; 15a70 <gatt_svr_chr_access_sec_test+0x154>
   15a38:	e285305d 	add	r3, r5, #93	; 0x5d
   15a3c:	e59f0030 	ldr	r0, [pc, #48]	; 15a74 <gatt_svr_chr_access_sec_test+0x158>
   15a40:	e300217e 	movw	r2, #382	; 0x17e
   15a44:	e08f1001 	add	r1, pc, r1
   15a48:	e08f0000 	add	r0, pc, r0
   15a4c:	eaffffc6 	b	1596c <gatt_svr_chr_access_sec_test+0x50>
   15a50:	000207f0 	.word	0x000207f0
   15a54:	00021445 	.word	0x00021445
   15a58:	0002157a 	.word	0x0002157a
   15a5c:	0002073c 	.word	0x0002073c
   15a60:	000213bd 	.word	0x000213bd
   15a64:	00024cb4 	.word	0x00024cb4
   15a68:	00039ec4 	.word	0x00039ec4
   15a6c:	00039ea4 	.word	0x00039ea4
   15a70:	00021365 	.word	0x00021365
   15a74:	00024c5c 	.word	0x00024c5c

00015a78 <cmd_l2cap_disconnect>:
   15a78:	e92d4073 	push	{r0, r1, r4, r5, r6, lr}
   15a7c:	e2811004 	add	r1, r1, #4
   15a80:	e2400001 	sub	r0, r0, #1
   15a84:	ebfff4b6 	bl	12d64 <parse_arg_all>
   15a88:	e3500000 	cmp	r0, #0
   15a8c:	e1a04000 	mov	r4, r0
   15a90:	e58d0004 	str	r0, [sp, #4]
   15a94:	1a00000c 	bne	15acc <cmd_l2cap_disconnect+0x54>
   15a98:	e28d4004 	add	r4, sp, #4
   15a9c:	e59f00f4 	ldr	r0, [pc, #244]	; 15b98 <cmd_l2cap_disconnect+0x120>
   15aa0:	e1a01004 	mov	r1, r4
   15aa4:	e08f0000 	add	r0, pc, r0
   15aa8:	ebfff6fe 	bl	136a8 <parse_arg_uint16>
   15aac:	e59d3004 	ldr	r3, [sp, #4]
   15ab0:	e3530000 	cmp	r3, #0
   15ab4:	e1a06000 	mov	r6, r0
   15ab8:	0a000006 	beq	15ad8 <cmd_l2cap_disconnect+0x60>
   15abc:	e59f00d8 	ldr	r0, [pc, #216]	; 15b9c <cmd_l2cap_disconnect+0x124>
   15ac0:	e08f0000 	add	r0, pc, r0
   15ac4:	ebffefb1 	bl	11990 <puts@plt>
   15ac8:	e59d4004 	ldr	r4, [sp, #4]
   15acc:	e1a00004 	mov	r0, r4
   15ad0:	e28dd008 	add	sp, sp, #8
   15ad4:	e8bd8070 	pop	{r4, r5, r6, pc}
   15ad8:	e59f00c0 	ldr	r0, [pc, #192]	; 15ba0 <cmd_l2cap_disconnect+0x128>
   15adc:	e1a01004 	mov	r1, r4
   15ae0:	e08f0000 	add	r0, pc, r0
   15ae4:	ebfff6ef 	bl	136a8 <parse_arg_uint16>
   15ae8:	e59d4004 	ldr	r4, [sp, #4]
   15aec:	e3540000 	cmp	r4, #0
   15af0:	e1a05000 	mov	r5, r0
   15af4:	159f00a8 	ldrne	r0, [pc, #168]	; 15ba4 <cmd_l2cap_disconnect+0x12c>
   15af8:	108f0000 	addne	r0, pc, r0
   15afc:	1afffff0 	bne	15ac4 <cmd_l2cap_disconnect+0x4c>
   15b00:	e1a00006 	mov	r0, r6
   15b04:	eb002cf2 	bl	20ed4 <btshell_conn_find.lto_priv.227>
   15b08:	e3500000 	cmp	r0, #0
   15b0c:	15903008 	ldrne	r3, [r0, #8]
   15b10:	1a00000c 	bne	15b48 <cmd_l2cap_disconnect+0xd0>
   15b14:	e59f308c 	ldr	r3, [pc, #140]	; 15ba8 <cmd_l2cap_disconnect+0x130>
   15b18:	e30029bb 	movw	r2, #2491	; 0x9bb
   15b1c:	e59f1088 	ldr	r1, [pc, #136]	; 15bac <cmd_l2cap_disconnect+0x134>
   15b20:	e59f0088 	ldr	r0, [pc, #136]	; 15bb0 <cmd_l2cap_disconnect+0x138>
   15b24:	e08f3003 	add	r3, pc, r3
   15b28:	e283309c 	add	r3, r3, #156	; 0x9c
   15b2c:	e08f1001 	add	r1, pc, r1
   15b30:	e08f0000 	add	r0, pc, r0
   15b34:	ebffef0e 	bl	11774 <__assert_fail@plt>
   15b38:	e1550004 	cmp	r5, r4
   15b3c:	0a00000c 	beq	15b74 <cmd_l2cap_disconnect+0xfc>
   15b40:	e5933000 	ldr	r3, [r3]
   15b44:	e2844001 	add	r4, r4, #1
   15b48:	e3530000 	cmp	r3, #0
   15b4c:	1afffff9 	bne	15b38 <cmd_l2cap_disconnect+0xc0>
   15b50:	e59f305c 	ldr	r3, [pc, #92]	; 15bb4 <cmd_l2cap_disconnect+0x13c>
   15b54:	e30029c4 	movw	r2, #2500	; 0x9c4
   15b58:	e59f1058 	ldr	r1, [pc, #88]	; 15bb8 <cmd_l2cap_disconnect+0x140>
   15b5c:	e59f0058 	ldr	r0, [pc, #88]	; 15bbc <cmd_l2cap_disconnect+0x144>
   15b60:	e08f3003 	add	r3, pc, r3
   15b64:	e283309c 	add	r3, r3, #156	; 0x9c
   15b68:	e08f1001 	add	r1, pc, r1
   15b6c:	e08f0000 	add	r0, pc, r0
   15b70:	eaffffef 	b	15b34 <cmd_l2cap_disconnect+0xbc>
   15b74:	e5930004 	ldr	r0, [r3, #4]
   15b78:	eb0045dd 	bl	272f4 <ble_l2cap_sig_disconnect>
   15b7c:	e2504000 	subs	r4, r0, #0
   15b80:	0affffd1 	beq	15acc <cmd_l2cap_disconnect+0x54>
   15b84:	e59f0034 	ldr	r0, [pc, #52]	; 15bc0 <cmd_l2cap_disconnect+0x148>
   15b88:	e1a01004 	mov	r1, r4
   15b8c:	e08f0000 	add	r0, pc, r0
   15b90:	ebffef45 	bl	118ac <printf@plt>
   15b94:	eaffffcc 	b	15acc <cmd_l2cap_disconnect+0x54>
   15b98:	00025493 	.word	0x00025493
   15b9c:	00020b0b 	.word	0x00020b0b
   15ba0:	000214c9 	.word	0x000214c9
   15ba4:	000214b5 	.word	0x000214b5
   15ba8:	000205fc 	.word	0x000205fc
   15bac:	00021499 	.word	0x00021499
   15bb0:	00021501 	.word	0x00021501
   15bb4:	000205c0 	.word	0x000205c0
   15bb8:	0002145d 	.word	0x0002145d
   15bbc:	000214f6 	.word	0x000214f6
   15bc0:	000214b2 	.word	0x000214b2

00015bc4 <cmd_l2cap_connect>:
   15bc4:	e92d4ff0 	push	{r4, r5, r6, r7, r8, r9, sl, fp, lr}
   15bc8:	e2811004 	add	r1, r1, #4
   15bcc:	e28db020 	add	fp, sp, #32
   15bd0:	e2400001 	sub	r0, r0, #1
   15bd4:	e24dd01c 	sub	sp, sp, #28
   15bd8:	ebfff461 	bl	12d64 <parse_arg_all>
   15bdc:	e3500000 	cmp	r0, #0
   15be0:	e1a04000 	mov	r4, r0
   15be4:	e50b002c 	str	r0, [fp, #-44]	; 0xffffffd4
   15be8:	1a00000c 	bne	15c20 <cmd_l2cap_connect+0x5c>
   15bec:	e24b602c 	sub	r6, fp, #44	; 0x2c
   15bf0:	e59f026c 	ldr	r0, [pc, #620]	; 15e64 <cmd_l2cap_connect+0x2a0>
   15bf4:	e1a01006 	mov	r1, r6
   15bf8:	e08f0000 	add	r0, pc, r0
   15bfc:	ebfff6a9 	bl	136a8 <parse_arg_uint16>
   15c00:	e51b302c 	ldr	r3, [fp, #-44]	; 0xffffffd4
   15c04:	e3530000 	cmp	r3, #0
   15c08:	e1a07000 	mov	r7, r0
   15c0c:	0a000006 	beq	15c2c <cmd_l2cap_connect+0x68>
   15c10:	e59f0250 	ldr	r0, [pc, #592]	; 15e68 <cmd_l2cap_connect+0x2a4>
   15c14:	e08f0000 	add	r0, pc, r0
   15c18:	ebffef5c 	bl	11990 <puts@plt>
   15c1c:	e51b402c 	ldr	r4, [fp, #-44]	; 0xffffffd4
   15c20:	e1a00004 	mov	r0, r4
   15c24:	e24bd020 	sub	sp, fp, #32
   15c28:	e8bd8ff0 	pop	{r4, r5, r6, r7, r8, r9, sl, fp, pc}
   15c2c:	e59f0238 	ldr	r0, [pc, #568]	; 15e6c <cmd_l2cap_connect+0x2a8>
   15c30:	e1a01006 	mov	r1, r6
   15c34:	e08f0000 	add	r0, pc, r0
   15c38:	ebfff69a 	bl	136a8 <parse_arg_uint16>
   15c3c:	e51b302c 	ldr	r3, [fp, #-44]	; 0xffffffd4
   15c40:	e3530000 	cmp	r3, #0
   15c44:	e1a08000 	mov	r8, r0
   15c48:	159f0220 	ldrne	r0, [pc, #544]	; 15e70 <cmd_l2cap_connect+0x2ac>
   15c4c:	108f0000 	addne	r0, pc, r0
   15c50:	1afffff0 	bne	15c18 <cmd_l2cap_connect+0x54>
   15c54:	e59f0218 	ldr	r0, [pc, #536]	; 15e74 <cmd_l2cap_connect+0x2b0>
   15c58:	e1a02006 	mov	r2, r6
   15c5c:	e1a01004 	mov	r1, r4
   15c60:	e08f0000 	add	r0, pc, r0
   15c64:	ebfff696 	bl	136c4 <parse_arg_uint16_dflt>
   15c68:	e51b302c 	ldr	r3, [fp, #-44]	; 0xffffffd4
   15c6c:	e3530000 	cmp	r3, #0
   15c70:	e1a05000 	mov	r5, r0
   15c74:	159f01fc 	ldrne	r0, [pc, #508]	; 15e78 <cmd_l2cap_connect+0x2b4>
   15c78:	108f0000 	addne	r0, pc, r0
   15c7c:	1affffe5 	bne	15c18 <cmd_l2cap_connect+0x54>
   15c80:	e59f01f4 	ldr	r0, [pc, #500]	; 15e7c <cmd_l2cap_connect+0x2b8>
   15c84:	e1a02006 	mov	r2, r6
   15c88:	e3a01001 	mov	r1, #1
   15c8c:	e08f0000 	add	r0, pc, r0
   15c90:	ebfffa67 	bl	14634 <parse_arg_uint8_dflt>
   15c94:	e51b602c 	ldr	r6, [fp, #-44]	; 0xffffffd4
   15c98:	e3560000 	cmp	r6, #0
   15c9c:	e1a04000 	mov	r4, r0
   15ca0:	159f01d8 	ldrne	r0, [pc, #472]	; 15e80 <cmd_l2cap_connect+0x2bc>
   15ca4:	108f0000 	addne	r0, pc, r0
   15ca8:	1affffda 	bne	15c18 <cmd_l2cap_connect+0x54>
   15cac:	e6bf3070 	sxth	r3, r0
   15cb0:	e1a0900d 	mov	r9, sp
   15cb4:	e59f01c8 	ldr	r0, [pc, #456]	; 15e84 <cmd_l2cap_connect+0x2c0>
   15cb8:	e3a02c01 	mov	r2, #256	; 0x100
   15cbc:	e1a03103 	lsl	r3, r3, #2
   15cc0:	e2833007 	add	r3, r3, #7
   15cc4:	e08f0000 	add	r0, pc, r0
   15cc8:	e3c33007 	bic	r3, r3, #7
   15ccc:	e04dd003 	sub	sp, sp, r3
   15cd0:	e2453001 	sub	r3, r5, #1
   15cd4:	e28da008 	add	sl, sp, #8
   15cd8:	e6ff3073 	uxth	r3, r3
   15cdc:	e3530c01 	cmp	r3, #256	; 0x100
   15ce0:	23a05c01 	movcs	r5, #256	; 0x100
   15ce4:	e1a01005 	mov	r1, r5
   15ce8:	ebffeeef 	bl	118ac <printf@plt>
   15cec:	e59f3194 	ldr	r3, [pc, #404]	; 15e88 <cmd_l2cap_connect+0x2c4>
   15cf0:	e08f3003 	add	r3, pc, r3
   15cf4:	e2833e2e 	add	r3, r3, #736	; 0x2e0
   15cf8:	e1540006 	cmp	r4, r6
   15cfc:	ca00000f 	bgt	15d40 <cmd_l2cap_connect+0x17c>
   15d00:	e3540001 	cmp	r4, #1
   15d04:	13a04008 	movne	r4, #8
   15d08:	1a00000a 	bne	15d38 <cmd_l2cap_connect+0x174>
   15d0c:	e59a6000 	ldr	r6, [sl]
   15d10:	e3560000 	cmp	r6, #0
   15d14:	03a04003 	moveq	r4, #3
   15d18:	0a000006 	beq	15d38 <cmd_l2cap_connect+0x174>
   15d1c:	eb005871 	bl	2bee8 <ble_hs_lock_nested>
   15d20:	e1a00007 	mov	r0, r7
   15d24:	eb0055ee 	bl	2b4e4 <ble_hs_conn_find>
   15d28:	e250a000 	subs	sl, r0, #0
   15d2c:	1a00000b 	bne	15d60 <cmd_l2cap_connect+0x19c>
   15d30:	eb005868 	bl	2bed8 <ble_hs_unlock_nested>
   15d34:	e3a04007 	mov	r4, #7
   15d38:	e1a0d009 	mov	sp, r9
   15d3c:	eaffffb7 	b	15c20 <cmd_l2cap_connect+0x5c>
   15d40:	e1a00003 	mov	r0, r3
   15d44:	e3a01000 	mov	r1, #0
   15d48:	e50b3030 	str	r3, [fp, #-48]	; 0xffffffd0
   15d4c:	eb003332 	bl	22a1c <os_mbuf_get_pkthdr>
   15d50:	e51b3030 	ldr	r3, [fp, #-48]	; 0xffffffd0
   15d54:	e78a0106 	str	r0, [sl, r6, lsl #2]
   15d58:	e2866001 	add	r6, r6, #1
   15d5c:	eaffffe5 	b	15cf8 <cmd_l2cap_connect+0x134>
   15d60:	e3a03000 	mov	r3, #0
   15d64:	e58d3004 	str	r3, [sp, #4]
   15d68:	e59f311c 	ldr	r3, [pc, #284]	; 15e8c <cmd_l2cap_connect+0x2c8>
   15d6c:	e1a02005 	mov	r2, r5
   15d70:	e1a01008 	mov	r1, r8
   15d74:	e08f3003 	add	r3, pc, r3
   15d78:	e58d3000 	str	r3, [sp]
   15d7c:	e1a03006 	mov	r3, r6
   15d80:	eb004851 	bl	27ecc <ble_l2cap_coc_chan_alloc>
   15d84:	e2505000 	subs	r5, r0, #0
   15d88:	1a000002 	bne	15d98 <cmd_l2cap_connect+0x1d4>
   15d8c:	eb005851 	bl	2bed8 <ble_hs_unlock_nested>
   15d90:	e3a04006 	mov	r4, #6
   15d94:	eaffffe7 	b	15d38 <cmd_l2cap_connect+0x174>
   15d98:	eb004181 	bl	263a4 <ble_l2cap_sig_proc_alloc.lto_priv.206>
   15d9c:	e2506000 	subs	r6, r0, #0
   15da0:	1a000003 	bne	15db4 <cmd_l2cap_connect+0x1f0>
   15da4:	e1a01005 	mov	r1, r5
   15da8:	e1a0000a 	mov	r0, sl
   15dac:	eb004736 	bl	27a8c <ble_l2cap_chan_free>
   15db0:	eafffff5 	b	15d8c <cmd_l2cap_connect+0x1c8>
   15db4:	e5c6400a 	strb	r4, [r6, #10]
   15db8:	eb004187 	bl	263dc <ble_l2cap_sig_next_id.lto_priv.207>
   15dbc:	e1c670b8 	strh	r7, [r6, #8]
   15dc0:	e5865010 	str	r5, [r6, #16]
   15dc4:	e24b3028 	sub	r3, fp, #40	; 0x28
   15dc8:	e5c6400c 	strb	r4, [r6, #12]
   15dcc:	e3a0200a 	mov	r2, #10
   15dd0:	e1a01000 	mov	r1, r0
   15dd4:	e5c6000b 	strb	r0, [r6, #11]
   15dd8:	e3a00014 	mov	r0, #20
   15ddc:	eb004121 	bl	26268 <ble_l2cap_sig_cmd_get>
   15de0:	e3500000 	cmp	r0, #0
   15de4:	1a000008 	bne	15e0c <cmd_l2cap_connect+0x248>
   15de8:	e1a01005 	mov	r1, r5
   15dec:	e1a0000a 	mov	r0, sl
   15df0:	eb004725 	bl	27a8c <ble_l2cap_chan_free>
   15df4:	e3a04006 	mov	r4, #6
   15df8:	eb005836 	bl	2bed8 <ble_hs_unlock_nested>
   15dfc:	e1a01004 	mov	r1, r4
   15e00:	e1a00006 	mov	r0, r6
   15e04:	eb00415c 	bl	2637c <ble_l2cap_sig_process_status.lto_priv.208>
   15e08:	eaffffca 	b	15d38 <cmd_l2cap_connect+0x174>
   15e0c:	e1d530b8 	ldrh	r3, [r5, #8]
   15e10:	e1c080b0 	strh	r8, [r0]
   15e14:	e1c030b2 	strh	r3, [r0, #2]
   15e18:	e1d532b8 	ldrh	r3, [r5, #40]	; 0x28
   15e1c:	e1c030b4 	strh	r3, [r0, #4]
   15e20:	e1d530ba 	ldrh	r3, [r5, #10]
   15e24:	e1c030b6 	strh	r3, [r0, #6]
   15e28:	e1d532ba 	ldrh	r3, [r5, #42]	; 0x2a
   15e2c:	e1c030b8 	strh	r3, [r0, #8]
   15e30:	eb005828 	bl	2bed8 <ble_hs_unlock_nested>
   15e34:	e51b1028 	ldr	r1, [fp, #-40]	; 0xffffffd8
   15e38:	e1d600b8 	ldrh	r0, [r6, #8]
   15e3c:	eb00448e 	bl	2707c <ble_l2cap_sig_tx>
   15e40:	e2504000 	subs	r4, r0, #0
   15e44:	0affffec 	beq	15dfc <cmd_l2cap_connect+0x238>
   15e48:	eb005826 	bl	2bee8 <ble_hs_lock_nested>
   15e4c:	e1a00007 	mov	r0, r7
   15e50:	eb0055a3 	bl	2b4e4 <ble_hs_conn_find>
   15e54:	e1a01005 	mov	r1, r5
   15e58:	eb00470b 	bl	27a8c <ble_l2cap_chan_free>
   15e5c:	eb00581d 	bl	2bed8 <ble_hs_unlock_nested>
   15e60:	eaffffe5 	b	15dfc <cmd_l2cap_connect+0x238>
   15e64:	0002533f 	.word	0x0002533f
   15e68:	000209b7 	.word	0x000209b7
   15e6c:	00020910 	.word	0x00020910
   15e70:	000208fc 	.word	0x000208fc
   15e74:	0002543e 	.word	0x0002543e
   15e78:	00020902 	.word	0x00020902
   15e7c:	000213e2 	.word	0x000213e2
   15e80:	000213ce 	.word	0x000213ce
   15e84:	000213c6 	.word	0x000213c6
   15e88:	00039bd4 	.word	0x00039bd4
   15e8c:	00004a3c 	.word	0x00004a3c

00015e90 <cmd_gatt_thoughput>:
   15e90:	e92d4070 	push	{r4, r5, r6, lr}
   15e94:	e24ddf42 	sub	sp, sp, #264	; 0x108
   15e98:	e28d4008 	add	r4, sp, #8
   15e9c:	e1a05000 	mov	r5, r0
   15ea0:	e1a06001 	mov	r6, r1
   15ea4:	e3a02c01 	mov	r2, #256	; 0x100
   15ea8:	e3a01000 	mov	r1, #0
   15eac:	e1a00004 	mov	r0, r4
   15eb0:	ebffee26 	bl	11750 <memset@plt>
   15eb4:	e2861004 	add	r1, r6, #4
   15eb8:	e2450001 	sub	r0, r5, #1
   15ebc:	ebfff3a8 	bl	12d64 <parse_arg_all>
   15ec0:	e3500000 	cmp	r0, #0
   15ec4:	e58d0004 	str	r0, [sp, #4]
   15ec8:	1a00000c 	bne	15f00 <cmd_gatt_thoughput+0x70>
   15ecc:	e28d5004 	add	r5, sp, #4
   15ed0:	e59f0068 	ldr	r0, [pc, #104]	; 15f40 <cmd_gatt_thoughput+0xb0>
   15ed4:	e1a01005 	mov	r1, r5
   15ed8:	e08f0000 	add	r0, pc, r0
   15edc:	ebfff5f1 	bl	136a8 <parse_arg_uint16>
   15ee0:	e59d3004 	ldr	r3, [sp, #4]
   15ee4:	e3530000 	cmp	r3, #0
   15ee8:	e1a06000 	mov	r6, r0
   15eec:	0a000005 	beq	15f08 <cmd_gatt_thoughput+0x78>
   15ef0:	e59f004c 	ldr	r0, [pc, #76]	; 15f44 <cmd_gatt_thoughput+0xb4>
   15ef4:	e08f0000 	add	r0, pc, r0
   15ef8:	ebffeea4 	bl	11990 <puts@plt>
   15efc:	e59d0004 	ldr	r0, [sp, #4]
   15f00:	e28ddf42 	add	sp, sp, #264	; 0x108
   15f04:	e8bd8070 	pop	{r4, r5, r6, pc}
   15f08:	e59f0038 	ldr	r0, [pc, #56]	; 15f48 <cmd_gatt_thoughput+0xb8>
   15f0c:	e1a01005 	mov	r1, r5
   15f10:	e08f0000 	add	r0, pc, r0
   15f14:	ebfff5e3 	bl	136a8 <parse_arg_uint16>
   15f18:	e1a05000 	mov	r5, r0
   15f1c:	e3a010f0 	mov	r1, #240	; 0xf0
   15f20:	e1a00004 	mov	r0, r4
   15f24:	eb0051db 	bl	2a698 <ble_hs_mbuf_from_flat>
   15f28:	e2502000 	subs	r2, r0, #0
   15f2c:	0afffffa 	beq	15f1c <cmd_gatt_thoughput+0x8c>
   15f30:	e1a01005 	mov	r1, r5
   15f34:	e1a00006 	mov	r0, r6
   15f38:	eb0074de 	bl	332b8 <ble_att_clt_tx_write_cmd>
   15f3c:	eafffff6 	b	15f1c <cmd_gatt_thoughput+0x8c>
   15f40:	0002505f 	.word	0x0002505f
   15f44:	000206d7 	.word	0x000206d7
   15f48:	0002119f 	.word	0x0002119f

00015f4c <cmd_gatt_show_local>:
   15f4c:	e59f3410 	ldr	r3, [pc, #1040]	; 16364 <cmd_gatt_show_local+0x418>
   15f50:	e92d4ff0 	push	{r4, r5, r6, r7, r8, r9, sl, fp, lr}
   15f54:	e08f3003 	add	r3, pc, r3
   15f58:	e24dd0fc 	sub	sp, sp, #252	; 0xfc
   15f5c:	e2833e4f 	add	r3, r3, #1264	; 0x4f0
   15f60:	e3a0b000 	mov	fp, #0
   15f64:	e2833008 	add	r3, r3, #8
   15f68:	e58d3004 	str	r3, [sp, #4]
   15f6c:	e59f33f4 	ldr	r3, [pc, #1012]	; 16368 <cmd_gatt_show_local+0x41c>
   15f70:	e08f3003 	add	r3, pc, r3
   15f74:	e2832e2f 	add	r2, r3, #752	; 0x2f0
   15f78:	e1d220b0 	ldrh	r2, [r2]
   15f7c:	e15b0002 	cmp	fp, r2
   15f80:	ba000002 	blt	15f90 <cmd_gatt_show_local+0x44>
   15f84:	e3a00000 	mov	r0, #0
   15f88:	e28dd0fc 	add	sp, sp, #252	; 0xfc
   15f8c:	e8bd8ff0 	pop	{r4, r5, r6, r7, r8, r9, sl, fp, pc}
   15f90:	e59322ec 	ldr	r2, [r3, #748]	; 0x2ec
   15f94:	e082318b 	add	r3, r2, fp, lsl #3
   15f98:	e792718b 	ldr	r7, [r2, fp, lsl #3]
   15f9c:	e1d340b4 	ldrh	r4, [r3, #4]
   15fa0:	e1d390b6 	ldrh	r9, [r3, #6]
   15fa4:	e5d73000 	ldrb	r3, [r7]
   15fa8:	e3530001 	cmp	r3, #1
   15fac:	0a00003b 	beq	160a0 <cmd_gatt_show_local+0x154>
   15fb0:	e59f13b4 	ldr	r1, [pc, #948]	; 1636c <cmd_gatt_show_local+0x420>
   15fb4:	e08f1001 	add	r1, pc, r1
   15fb8:	e59f03b0 	ldr	r0, [pc, #944]	; 16370 <cmd_gatt_show_local+0x424>
   15fbc:	e28d801c 	add	r8, sp, #28
   15fc0:	e59f53ac 	ldr	r5, [pc, #940]	; 16374 <cmd_gatt_show_local+0x428>
   15fc4:	e08f0000 	add	r0, pc, r0
   15fc8:	e59f63a8 	ldr	r6, [pc, #936]	; 16378 <cmd_gatt_show_local+0x42c>
   15fcc:	ebffee36 	bl	118ac <printf@plt>
   15fd0:	e1a01008 	mov	r1, r8
   15fd4:	e5970004 	ldr	r0, [r7, #4]
   15fd8:	e08f5005 	add	r5, pc, r5
   15fdc:	eb00381d 	bl	24058 <ble_uuid_to_str>
   15fe0:	e59f2394 	ldr	r2, [pc, #916]	; 1637c <cmd_gatt_show_local+0x430>
   15fe4:	e1a01005 	mov	r1, r5
   15fe8:	e08f6006 	add	r6, pc, r6
   15fec:	e08f2002 	add	r2, pc, r2
   15ff0:	e1a03000 	mov	r3, r0
   15ff4:	e59f0384 	ldr	r0, [pc, #900]	; 16380 <cmd_gatt_show_local+0x434>
   15ff8:	e08f0000 	add	r0, pc, r0
   15ffc:	ebffee2a 	bl	118ac <printf@plt>
   16000:	e59f237c 	ldr	r2, [pc, #892]	; 16384 <cmd_gatt_show_local+0x438>
   16004:	e1a03004 	mov	r3, r4
   16008:	e1a01005 	mov	r1, r5
   1600c:	e08f2002 	add	r2, pc, r2
   16010:	e1a00006 	mov	r0, r6
   16014:	ebffee24 	bl	118ac <printf@plt>
   16018:	e59f2368 	ldr	r2, [pc, #872]	; 16388 <cmd_gatt_show_local+0x43c>
   1601c:	e1a01005 	mov	r1, r5
   16020:	e1a03009 	mov	r3, r9
   16024:	e08f2002 	add	r2, pc, r2
   16028:	e1a00006 	mov	r0, r6
   1602c:	ebffee1e 	bl	118ac <printf@plt>
   16030:	e5975008 	ldr	r5, [r7, #8]
   16034:	e2844001 	add	r4, r4, #1
   16038:	e3550000 	cmp	r5, #0
   1603c:	e6ff4074 	uxth	r4, r4
   16040:	0a00000d 	beq	1607c <cmd_gatt_show_local+0x130>
   16044:	e59fa340 	ldr	sl, [pc, #832]	; 1638c <cmd_gatt_show_local+0x440>
   16048:	e2455004 	sub	r5, r5, #4
   1604c:	e59f933c 	ldr	r9, [pc, #828]	; 16390 <cmd_gatt_show_local+0x444>
   16050:	e3a06000 	mov	r6, #0
   16054:	e59f3338 	ldr	r3, [pc, #824]	; 16394 <cmd_gatt_show_local+0x448>
   16058:	e08fa00a 	add	sl, pc, sl
   1605c:	e08f9009 	add	r9, pc, r9
   16060:	e08f3003 	add	r3, pc, r3
   16064:	e58d3000 	str	r3, [sp]
   16068:	e5b53004 	ldr	r3, [r5, #4]!
   1606c:	e3530000 	cmp	r3, #0
   16070:	1a00000d 	bne	160ac <cmd_gatt_show_local+0x160>
   16074:	e0844006 	add	r4, r4, r6
   16078:	e6ff4074 	uxth	r4, r4
   1607c:	e597500c 	ldr	r5, [r7, #12]
   16080:	e2855018 	add	r5, r5, #24
   16084:	e3550018 	cmp	r5, #24
   16088:	0a000002 	beq	16098 <cmd_gatt_show_local+0x14c>
   1608c:	e5153018 	ldr	r3, [r5, #-24]	; 0xffffffe8
   16090:	e3530000 	cmp	r3, #0
   16094:	1a000019 	bne	16100 <cmd_gatt_show_local+0x1b4>
   16098:	e28bb001 	add	fp, fp, #1
   1609c:	eaffffb2 	b	15f6c <cmd_gatt_show_local+0x20>
   160a0:	e59f12f0 	ldr	r1, [pc, #752]	; 16398 <cmd_gatt_show_local+0x44c>
   160a4:	e08f1001 	add	r1, pc, r1
   160a8:	eaffffc2 	b	15fb8 <cmd_gatt_show_local+0x6c>
   160ac:	e1a0000a 	mov	r0, sl
   160b0:	e2866001 	add	r6, r6, #1
   160b4:	ebffee35 	bl	11990 <puts@plt>
   160b8:	e5953000 	ldr	r3, [r5]
   160bc:	e1a01008 	mov	r1, r8
   160c0:	e5930004 	ldr	r0, [r3, #4]
   160c4:	eb0037e3 	bl	24058 <ble_uuid_to_str>
   160c8:	e59d2000 	ldr	r2, [sp]
   160cc:	e1a01009 	mov	r1, r9
   160d0:	e1a03000 	mov	r3, r0
   160d4:	e59f02c0 	ldr	r0, [pc, #704]	; 1639c <cmd_gatt_show_local+0x450>
   160d8:	e08f0000 	add	r0, pc, r0
   160dc:	ebffedf2 	bl	118ac <printf@plt>
   160e0:	e59f22b8 	ldr	r2, [pc, #696]	; 163a0 <cmd_gatt_show_local+0x454>
   160e4:	e59f02b8 	ldr	r0, [pc, #696]	; 163a4 <cmd_gatt_show_local+0x458>
   160e8:	e1a03004 	mov	r3, r4
   160ec:	e08f2002 	add	r2, pc, r2
   160f0:	e1a01009 	mov	r1, r9
   160f4:	e08f0000 	add	r0, pc, r0
   160f8:	ebffedeb 	bl	118ac <printf@plt>
   160fc:	eaffffd9 	b	16068 <cmd_gatt_show_local+0x11c>
   16100:	e59f02a0 	ldr	r0, [pc, #672]	; 163a8 <cmd_gatt_show_local+0x45c>
   16104:	e2847002 	add	r7, r4, #2
   16108:	e59fa29c 	ldr	sl, [pc, #668]	; 163ac <cmd_gatt_show_local+0x460>
   1610c:	e08f0000 	add	r0, pc, r0
   16110:	e59f6298 	ldr	r6, [pc, #664]	; 163b0 <cmd_gatt_show_local+0x464>
   16114:	ebffee1d 	bl	11990 <puts@plt>
   16118:	e28d301c 	add	r3, sp, #28
   1611c:	e5150018 	ldr	r0, [r5, #-24]	; 0xffffffe8
   16120:	e08f6006 	add	r6, pc, r6
   16124:	e1a01003 	mov	r1, r3
   16128:	e58d3000 	str	r3, [sp]
   1612c:	eb0037c9 	bl	24058 <ble_uuid_to_str>
   16130:	e59f927c 	ldr	r9, [pc, #636]	; 163b4 <cmd_gatt_show_local+0x468>
   16134:	e08fa00a 	add	sl, pc, sl
   16138:	e59f8278 	ldr	r8, [pc, #632]	; 163b8 <cmd_gatt_show_local+0x46c>
   1613c:	e08f9009 	add	r9, pc, r9
   16140:	e1a01006 	mov	r1, r6
   16144:	e1a0200a 	mov	r2, sl
   16148:	e08f8008 	add	r8, pc, r8
   1614c:	e6ff7077 	uxth	r7, r7
   16150:	e1a03000 	mov	r3, r0
   16154:	e1a00009 	mov	r0, r9
   16158:	ebffedd3 	bl	118ac <printf@plt>
   1615c:	e59f2258 	ldr	r2, [pc, #600]	; 163bc <cmd_gatt_show_local+0x470>
   16160:	e1a03004 	mov	r3, r4
   16164:	e1a01006 	mov	r1, r6
   16168:	e08f2002 	add	r2, pc, r2
   1616c:	e1a00008 	mov	r0, r8
   16170:	ebffedcd 	bl	118ac <printf@plt>
   16174:	e59f2244 	ldr	r2, [pc, #580]	; 163c0 <cmd_gatt_show_local+0x474>
   16178:	e2843001 	add	r3, r4, #1
   1617c:	e1a01006 	mov	r1, r6
   16180:	e08f2002 	add	r2, pc, r2
   16184:	e1a00008 	mov	r0, r8
   16188:	ebffedc7 	bl	118ac <printf@plt>
   1618c:	e59f3230 	ldr	r3, [pc, #560]	; 163c4 <cmd_gatt_show_local+0x478>
   16190:	e1a01006 	mov	r1, r6
   16194:	e1a00008 	mov	r0, r8
   16198:	e08f3003 	add	r3, pc, r3
   1619c:	e58d3008 	str	r3, [sp, #8]
   161a0:	e59d2008 	ldr	r2, [sp, #8]
   161a4:	e5553006 	ldrb	r3, [r5, #-6]
   161a8:	ebffedbf 	bl	118ac <printf@plt>
   161ac:	e59f3214 	ldr	r3, [pc, #532]	; 163c8 <cmd_gatt_show_local+0x47c>
   161b0:	e15500b8 	ldrh	r0, [r5, #-8]
   161b4:	e08f3003 	add	r3, pc, r3
   161b8:	e58d300c 	str	r3, [sp, #12]
   161bc:	e28d3044 	add	r3, sp, #68	; 0x44
   161c0:	e58d3010 	str	r3, [sp, #16]
   161c4:	e59d300c 	ldr	r3, [sp, #12]
   161c8:	e59d1010 	ldr	r1, [sp, #16]
   161cc:	e2832e4b 	add	r2, r3, #1200	; 0x4b0
   161d0:	e2822008 	add	r2, r2, #8
   161d4:	eb005a7b 	bl	2cbc8 <ble_gatts_flags_to_str.lto_priv.230>
   161d8:	e59f31ec 	ldr	r3, [pc, #492]	; 163cc <cmd_gatt_show_local+0x480>
   161dc:	e1a01006 	mov	r1, r6
   161e0:	e08f3003 	add	r3, pc, r3
   161e4:	e58d3014 	str	r3, [sp, #20]
   161e8:	e59d2014 	ldr	r2, [sp, #20]
   161ec:	e1a03000 	mov	r3, r0
   161f0:	e1a00009 	mov	r0, r9
   161f4:	ebffedac 	bl	118ac <printf@plt>
   161f8:	e15530b8 	ldrh	r3, [r5, #-8]
   161fc:	e3130030 	tst	r3, #48	; 0x30
   16200:	0a000024 	beq	16298 <cmd_gatt_show_local+0x34c>
   16204:	e59f01c4 	ldr	r0, [pc, #452]	; 163d0 <cmd_gatt_show_local+0x484>
   16208:	e2844003 	add	r4, r4, #3
   1620c:	e08f0000 	add	r0, pc, r0
   16210:	ebffedde 	bl	11990 <puts@plt>
   16214:	e59f01b8 	ldr	r0, [pc, #440]	; 163d4 <cmd_gatt_show_local+0x488>
   16218:	e59d1000 	ldr	r1, [sp]
   1621c:	e08f0000 	add	r0, pc, r0
   16220:	e280002c 	add	r0, r0, #44	; 0x2c
   16224:	eb00378b 	bl	24058 <ble_uuid_to_str>
   16228:	e1a0200a 	mov	r2, sl
   1622c:	e1a01006 	mov	r1, r6
   16230:	e1a03000 	mov	r3, r0
   16234:	e1a00009 	mov	r0, r9
   16238:	ebffed9b 	bl	118ac <printf@plt>
   1623c:	e59f2194 	ldr	r2, [pc, #404]	; 163d8 <cmd_gatt_show_local+0x48c>
   16240:	e1a03007 	mov	r3, r7
   16244:	e1a01006 	mov	r1, r6
   16248:	e08f2002 	add	r2, pc, r2
   1624c:	e1a00008 	mov	r0, r8
   16250:	ebffed95 	bl	118ac <printf@plt>
   16254:	e3a03000 	mov	r3, #0
   16258:	e59d2008 	ldr	r2, [sp, #8]
   1625c:	e1a01006 	mov	r1, r6
   16260:	e1a00008 	mov	r0, r8
   16264:	e6ff7074 	uxth	r7, r4
   16268:	ebffed8f 	bl	118ac <printf@plt>
   1626c:	e59d300c 	ldr	r3, [sp, #12]
   16270:	e59d1010 	ldr	r1, [sp, #16]
   16274:	e3a00003 	mov	r0, #3
   16278:	e2832e4f 	add	r2, r3, #1264	; 0x4f0
   1627c:	e2822008 	add	r2, r2, #8
   16280:	eb005a50 	bl	2cbc8 <ble_gatts_flags_to_str.lto_priv.230>
   16284:	e59d2014 	ldr	r2, [sp, #20]
   16288:	e1a01006 	mov	r1, r6
   1628c:	e1a03000 	mov	r3, r0
   16290:	e1a00009 	mov	r0, r9
   16294:	ebffed84 	bl	118ac <printf@plt>
   16298:	e59fa13c 	ldr	sl, [pc, #316]	; 163dc <cmd_gatt_show_local+0x490>
   1629c:	e1a04007 	mov	r4, r7
   162a0:	e515600c 	ldr	r6, [r5, #-12]
   162a4:	e08fa00a 	add	sl, pc, sl
   162a8:	e3560000 	cmp	r6, #0
   162ac:	0affff73 	beq	16080 <cmd_gatt_show_local+0x134>
   162b0:	e4963010 	ldr	r3, [r6], #16
   162b4:	e3530000 	cmp	r3, #0
   162b8:	0affff70 	beq	16080 <cmd_gatt_show_local+0x134>
   162bc:	e1a0000a 	mov	r0, sl
   162c0:	e59f7118 	ldr	r7, [pc, #280]	; 163e0 <cmd_gatt_show_local+0x494>
   162c4:	ebffedb1 	bl	11990 <puts@plt>
   162c8:	e59d1000 	ldr	r1, [sp]
   162cc:	e5160010 	ldr	r0, [r6, #-16]
   162d0:	e08f7007 	add	r7, pc, r7
   162d4:	eb00375f 	bl	24058 <ble_uuid_to_str>
   162d8:	e59f8104 	ldr	r8, [pc, #260]	; 163e4 <cmd_gatt_show_local+0x498>
   162dc:	e59f2104 	ldr	r2, [pc, #260]	; 163e8 <cmd_gatt_show_local+0x49c>
   162e0:	e1a01007 	mov	r1, r7
   162e4:	e08f8008 	add	r8, pc, r8
   162e8:	e59f90fc 	ldr	r9, [pc, #252]	; 163ec <cmd_gatt_show_local+0x4a0>
   162ec:	e08f2002 	add	r2, pc, r2
   162f0:	e08f9009 	add	r9, pc, r9
   162f4:	e1a03000 	mov	r3, r0
   162f8:	e1a00008 	mov	r0, r8
   162fc:	ebffed6a 	bl	118ac <printf@plt>
   16300:	e59f20e8 	ldr	r2, [pc, #232]	; 163f0 <cmd_gatt_show_local+0x4a4>
   16304:	e1a03004 	mov	r3, r4
   16308:	e1a01007 	mov	r1, r7
   1630c:	e08f2002 	add	r2, pc, r2
   16310:	e1a00009 	mov	r0, r9
   16314:	ebffed64 	bl	118ac <printf@plt>
   16318:	e59f20d4 	ldr	r2, [pc, #212]	; 163f4 <cmd_gatt_show_local+0x4a8>
   1631c:	e556300b 	ldrb	r3, [r6, #-11]
   16320:	e1a01007 	mov	r1, r7
   16324:	e08f2002 	add	r2, pc, r2
   16328:	e1a00009 	mov	r0, r9
   1632c:	ebffed5e 	bl	118ac <printf@plt>
   16330:	e59d2004 	ldr	r2, [sp, #4]
   16334:	e28d1044 	add	r1, sp, #68	; 0x44
   16338:	e556000c 	ldrb	r0, [r6, #-12]
   1633c:	eb005a21 	bl	2cbc8 <ble_gatts_flags_to_str.lto_priv.230>
   16340:	e59f20b0 	ldr	r2, [pc, #176]	; 163f8 <cmd_gatt_show_local+0x4ac>
   16344:	e2844001 	add	r4, r4, #1
   16348:	e1a01007 	mov	r1, r7
   1634c:	e08f2002 	add	r2, pc, r2
   16350:	e6ff4074 	uxth	r4, r4
   16354:	e1a03000 	mov	r3, r0
   16358:	e1a00008 	mov	r0, r8
   1635c:	ebffed52 	bl	118ac <printf@plt>
   16360:	eaffffd0 	b	162a8 <cmd_gatt_show_local+0x35c>
   16364:	00037788 	.word	0x00037788
   16368:	00039954 	.word	0x00039954
   1636c:	00021108 	.word	0x00021108
   16370:	00021102 	.word	0x00021102
   16374:	00023426 	.word	0x00023426
   16378:	000210f7 	.word	0x000210f7
   1637c:	00020553 	.word	0x00020553
   16380:	000210da 	.word	0x000210da
   16384:	00021101 	.word	0x00021101
   16388:	000210c8 	.word	0x000210c8
   1638c:	0002109f 	.word	0x0002109f
   16390:	000233a2 	.word	0x000233a2
   16394:	000204df 	.word	0x000204df
   16398:	00021010 	.word	0x00021010
   1639c:	00020ffa 	.word	0x00020ffa
   163a0:	0002101c 	.word	0x0002101c
   163a4:	00020feb 	.word	0x00020feb
   163a8:	00024f17 	.word	0x00024f17
   163ac:	0002040b 	.word	0x0002040b
   163b0:	000232de 	.word	0x000232de
   163b4:	00020f96 	.word	0x00020f96
   163b8:	00020f97 	.word	0x00020f97
   163bc:	00020fac 	.word	0x00020fac
   163c0:	00020f9f 	.word	0x00020f9f
   163c4:	00020f92 	.word	0x00020f92
   163c8:	00037528 	.word	0x00037528
   163cc:	000204c1 	.word	0x000204c1
   163d0:	00020f2b 	.word	0x00020f2b
   163d4:	00038f58 	.word	0x00038f58
   163d8:	00020ec5 	.word	0x00020ec5
   163dc:	00020e97 	.word	0x00020e97
   163e0:	0002312e 	.word	0x0002312e
   163e4:	00020dee 	.word	0x00020dee
   163e8:	00020253 	.word	0x00020253
   163ec:	00020def 	.word	0x00020def
   163f0:	00020e01 	.word	0x00020e01
   163f4:	00020e06 	.word	0x00020e06
   163f8:	00020355 	.word	0x00020355

000163fc <cmd_gatt_find_included_services>:
   163fc:	e92d41f3 	push	{r0, r1, r4, r5, r6, r7, r8, lr}
   16400:	e2811004 	add	r1, r1, #4
   16404:	e2400001 	sub	r0, r0, #1
   16408:	ebfff255 	bl	12d64 <parse_arg_all>
   1640c:	e2504000 	subs	r4, r0, #0
   16410:	1a000008 	bne	16438 <cmd_gatt_find_included_services+0x3c>
   16414:	e28d2006 	add	r2, sp, #6
   16418:	e28d1002 	add	r1, sp, #2
   1641c:	e28d0004 	add	r0, sp, #4
   16420:	ebfff5f7 	bl	13c04 <cmd_parse_conn_start_end>
   16424:	e2504000 	subs	r4, r0, #0
   16428:	0a000005 	beq	16444 <cmd_gatt_find_included_services+0x48>
   1642c:	e59f0084 	ldr	r0, [pc, #132]	; 164b8 <cmd_gatt_find_included_services+0xbc>
   16430:	e08f0000 	add	r0, pc, r0
   16434:	ebffed55 	bl	11990 <puts@plt>
   16438:	e1a00004 	mov	r0, r4
   1643c:	e28dd008 	add	sp, sp, #8
   16440:	e8bd81f0 	pop	{r4, r5, r6, r7, r8, pc}
   16444:	e1dd80b4 	ldrh	r8, [sp, #4]
   16448:	e1dd60b2 	ldrh	r6, [sp, #2]
   1644c:	e1dd70b6 	ldrh	r7, [sp, #6]
   16450:	eb005d13 	bl	2d8a4 <ble_gattc_proc_alloc.lto_priv.204>
   16454:	e2505000 	subs	r5, r0, #0
   16458:	03a04006 	moveq	r4, #6
   1645c:	0a00000b 	beq	16490 <cmd_gatt_find_included_services+0x94>
   16460:	e3a03003 	mov	r3, #3
   16464:	e5c5300a 	strb	r3, [r5, #10]
   16468:	e59f304c 	ldr	r3, [pc, #76]	; 164bc <cmd_gatt_find_included_services+0xc0>
   1646c:	e2466001 	sub	r6, r6, #1
   16470:	e5854018 	str	r4, [r5, #24]
   16474:	e08f3003 	add	r3, pc, r3
   16478:	e1c580b8 	strh	r8, [r5, #8]
   1647c:	e1c560bc 	strh	r6, [r5, #12]
   16480:	e1c570be 	strh	r7, [r5, #14]
   16484:	e5853014 	str	r3, [r5, #20]
   16488:	eb007423 	bl	3351c <ble_gattc_find_inc_svcs_tx.lto_priv.231>
   1648c:	e1a04000 	mov	r4, r0
   16490:	e1a01004 	mov	r1, r4
   16494:	e1a00005 	mov	r0, r5
   16498:	eb005bc1 	bl	2d3a4 <ble_gattc_process_status.lto_priv.205>
   1649c:	e3540000 	cmp	r4, #0
   164a0:	0affffe4 	beq	16438 <cmd_gatt_find_included_services+0x3c>
   164a4:	e59f0014 	ldr	r0, [pc, #20]	; 164c0 <cmd_gatt_find_included_services+0xc4>
   164a8:	e1a01004 	mov	r1, r4
   164ac:	e08f0000 	add	r0, pc, r0
   164b0:	ebffecfd 	bl	118ac <printf@plt>
   164b4:	eaffffdf 	b	16438 <cmd_gatt_find_included_services+0x3c>
   164b8:	00020d16 	.word	0x00020d16
   164bc:	0000bab0 	.word	0x0000bab0
   164c0:	00020cbd 	.word	0x00020cbd

000164c4 <cmd_gatt_service_visibility>:
   164c4:	e92d4037 	push	{r0, r1, r2, r4, r5, lr}
   164c8:	e2811004 	add	r1, r1, #4
   164cc:	e2400001 	sub	r0, r0, #1
   164d0:	ebfff223 	bl	12d64 <parse_arg_all>
   164d4:	e3500000 	cmp	r0, #0
   164d8:	e1a04000 	mov	r4, r0
   164dc:	e58d0004 	str	r0, [sp, #4]
   164e0:	1a00000c 	bne	16518 <ble_att_cmd.c.50297cea+0x37>
   164e4:	e28d4004 	add	r4, sp, #4
   164e8:	e59f00d8 	ldr	r0, [pc, #216]	; 165c8 <ble_att_cmd.c.50297cea+0xe7>
   164ec:	e1a01004 	mov	r1, r4
   164f0:	e08f0000 	add	r0, pc, r0
   164f4:	ebfff46b 	bl	136a8 <parse_arg_uint16>
   164f8:	e59d3004 	ldr	r3, [sp, #4]
   164fc:	e3530000 	cmp	r3, #0
   16500:	e1a05000 	mov	r5, r0
   16504:	0a000006 	beq	16524 <ble_att_cmd.c.50297cea+0x43>
   16508:	e59f00bc 	ldr	r0, [pc, #188]	; 165cc <ble_att_cmd.c.50297cea+0xeb>
   1650c:	e08f0000 	add	r0, pc, r0
   16510:	ebffed1e 	bl	11990 <puts@plt>
   16514:	e59d4004 	ldr	r4, [sp, #4]
   16518:	e1a00004 	mov	r0, r4
   1651c:	e28dd00c 	add	sp, sp, #12
   16520:	e8bd8030 	pop	{r4, r5, pc}
   16524:	e59f00a4 	ldr	r0, [pc, #164]	; 165d0 <ble_att_cmd.c.50297cea+0xef>
   16528:	e1a01004 	mov	r1, r4
   1652c:	e08f0000 	add	r0, pc, r0
   16530:	ebfff999 	bl	14b9c <parse_arg_bool>
   16534:	e59d4004 	ldr	r4, [sp, #4]
   16538:	e3540000 	cmp	r4, #0
   1653c:	1a000016 	bne	1659c <ble_att_cmd.c.50297cea+0xbb>
   16540:	e59f308c 	ldr	r3, [pc, #140]	; 165d4 <ble_att_cmd.c.50297cea+0xf3>
   16544:	e1a01004 	mov	r1, r4
   16548:	e08f3003 	add	r3, pc, r3
   1654c:	e2832e2f 	add	r2, r3, #752	; 0x2f0
   16550:	e59332ec 	ldr	r3, [r3, #748]	; 0x2ec
   16554:	e1d220b0 	ldrh	r2, [r2]
   16558:	e1510002 	cmp	r1, r2
   1655c:	aaffffed 	bge	16518 <ble_att_cmd.c.50297cea+0x37>
   16560:	e1a0c003 	mov	ip, r3
   16564:	e2833008 	add	r3, r3, #8
   16568:	e153e0b4 	ldrh	lr, [r3, #-4]
   1656c:	e155000e 	cmp	r5, lr
   16570:	1a000012 	bne	165c0 <ble_att_cmd.c.50297cea+0xdf>
   16574:	e3500000 	cmp	r0, #0
   16578:	e1dc30b6 	ldrh	r3, [ip, #6]
   1657c:	0a000009 	beq	165a8 <ble_att_cmd.c.50297cea+0xc7>
   16580:	e59f0050 	ldr	r0, [pc, #80]	; 165d8 <ble_att_cmd.c.50297cea+0xf7>
   16584:	e1a02005 	mov	r2, r5
   16588:	e08f0000 	add	r0, pc, r0
   1658c:	e2801fbd 	add	r1, r0, #756	; 0x2f4
   16590:	e2800fbf 	add	r0, r0, #764	; 0x2fc
   16594:	eb0068cc 	bl	308cc <ble_att_svr_move_entries.lto_priv.232>
   16598:	eaffffde 	b	16518 <ble_att_cmd.c.50297cea+0x37>
   1659c:	e59f0038 	ldr	r0, [pc, #56]	; 165dc <ble_att_cmd.c.50297cea+0xfb>
   165a0:	e08f0000 	add	r0, pc, r0
   165a4:	eaffffd9 	b	16510 <ble_att_cmd.c.50297cea+0x2f>
   165a8:	e59f0030 	ldr	r0, [pc, #48]	; 165e0 <ble_att_cmd.c.50297cea+0xff>
   165ac:	e1a02005 	mov	r2, r5
   165b0:	e08f0000 	add	r0, pc, r0
   165b4:	e2801fbf 	add	r1, r0, #764	; 0x2fc
   165b8:	e2800fbd 	add	r0, r0, #756	; 0x2f4
   165bc:	eafffff4 	b	16594 <ble_att_cmd.c.50297cea+0xb3>
   165c0:	e2811001 	add	r1, r1, #1
   165c4:	eaffffe3 	b	16558 <ble_att_cmd.c.50297cea+0x77>
   165c8:	00020c1d 	.word	0x00020c1d
   165cc:	00020c85 	.word	0x00020c85
   165d0:	000245aa 	.word	0x000245aa
   165d4:	0003937c 	.word	0x0003937c
   165d8:	0003933c 	.word	0x0003933c
   165dc:	00020c0c 	.word	0x00020c0c
   165e0:	00039314 	.word	0x00039314

000165e4 <cmd_gatt_service_changed>:
   165e4:	e92d4037 	push	{r0, r1, r2, r4, r5, lr}
   165e8:	e2811004 	add	r1, r1, #4
   165ec:	e2400001 	sub	r0, r0, #1
   165f0:	ebfff1db 	bl	12d64 <parse_arg_all>
   165f4:	e3500000 	cmp	r0, #0
   165f8:	e1a04000 	mov	r4, r0
   165fc:	e58d0004 	str	r0, [sp, #4]
   16600:	1a00000c 	bne	16638 <cmd_gatt_service_changed+0x54>
   16604:	e28d4004 	add	r4, sp, #4
   16608:	e59f0080 	ldr	r0, [pc, #128]	; 16690 <cmd_gatt_service_changed+0xac>
   1660c:	e1a01004 	mov	r1, r4
   16610:	e08f0000 	add	r0, pc, r0
   16614:	ebfff423 	bl	136a8 <parse_arg_uint16>
   16618:	e59d3004 	ldr	r3, [sp, #4]
   1661c:	e3530000 	cmp	r3, #0
   16620:	e1a05000 	mov	r5, r0
   16624:	0a000006 	beq	16644 <cmd_gatt_service_changed+0x60>
   16628:	e59f0064 	ldr	r0, [pc, #100]	; 16694 <cmd_gatt_service_changed+0xb0>
   1662c:	e08f0000 	add	r0, pc, r0
   16630:	ebffecd6 	bl	11990 <puts@plt>
   16634:	e59d4004 	ldr	r4, [sp, #4]
   16638:	e1a00004 	mov	r0, r4
   1663c:	e28dd00c 	add	sp, sp, #12
   16640:	e8bd8030 	pop	{r4, r5, pc}
   16644:	e59f004c 	ldr	r0, [pc, #76]	; 16698 <cmd_gatt_service_changed+0xb4>
   16648:	e1a01004 	mov	r1, r4
   1664c:	e08f0000 	add	r0, pc, r0
   16650:	ebfff414 	bl	136a8 <parse_arg_uint16>
   16654:	e59d4004 	ldr	r4, [sp, #4]
   16658:	e3540000 	cmp	r4, #0
   1665c:	159f0038 	ldrne	r0, [pc, #56]	; 1669c <cmd_gatt_service_changed+0xb8>
   16660:	108f0000 	addne	r0, pc, r0
   16664:	1afffff1 	bne	16630 <cmd_gatt_service_changed+0x4c>
   16668:	e59f3030 	ldr	r3, [pc, #48]	; 166a0 <cmd_gatt_service_changed+0xbc>
   1666c:	e08f3003 	add	r3, pc, r3
   16670:	e2832fc1 	add	r2, r3, #772	; 0x304
   16674:	e1c250b0 	strh	r5, [r2]
   16678:	e3002306 	movw	r2, #774	; 0x306
   1667c:	e18300b2 	strh	r0, [r3, r2]
   16680:	e2833fc2 	add	r3, r3, #776	; 0x308
   16684:	e1d300b0 	ldrh	r0, [r3]
   16688:	eb005a41 	bl	2cf94 <ble_gatts_chr_updated>
   1668c:	eaffffe9 	b	16638 <cmd_gatt_service_changed+0x54>
   16690:	00024194 	.word	0x00024194
   16694:	00020b9f 	.word	0x00020b9f
   16698:	00024b1e 	.word	0x00024b1e
   1669c:	00020b85 	.word	0x00020b85
   166a0:	00039258 	.word	0x00039258

000166a4 <cmd_gatt_notify>:
   166a4:	e92d4013 	push	{r0, r1, r4, lr}
   166a8:	e2811004 	add	r1, r1, #4
   166ac:	e2400001 	sub	r0, r0, #1
   166b0:	ebfff1ab 	bl	12d64 <parse_arg_all>
   166b4:	e3500000 	cmp	r0, #0
   166b8:	e1a04000 	mov	r4, r0
   166bc:	e58d0004 	str	r0, [sp, #4]
   166c0:	1a00000a 	bne	166f0 <cmd_gatt_notify+0x4c>
   166c4:	e59f0038 	ldr	r0, [pc, #56]	; 16704 <cmd_gatt_notify+0x60>
   166c8:	e28d1004 	add	r1, sp, #4
   166cc:	e08f0000 	add	r0, pc, r0
   166d0:	ebfff3f4 	bl	136a8 <parse_arg_uint16>
   166d4:	e59d4004 	ldr	r4, [sp, #4]
   166d8:	e3540000 	cmp	r4, #0
   166dc:	0a000006 	beq	166fc <cmd_gatt_notify+0x58>
   166e0:	e59f0020 	ldr	r0, [pc, #32]	; 16708 <cmd_gatt_notify+0x64>
   166e4:	e08f0000 	add	r0, pc, r0
   166e8:	ebffeca8 	bl	11990 <puts@plt>
   166ec:	e59d4004 	ldr	r4, [sp, #4]
   166f0:	e1a00004 	mov	r0, r4
   166f4:	e28dd008 	add	sp, sp, #8
   166f8:	e8bd8010 	pop	{r4, pc}
   166fc:	eb005a24 	bl	2cf94 <ble_gatts_chr_updated>
   16700:	eafffffa 	b	166f0 <cmd_gatt_notify+0x4c>
   16704:	000209e3 	.word	0x000209e3
   16708:	00020b19 	.word	0x00020b19

0001670c <cmd_gatt_discover_full>:
   1670c:	e92d4073 	push	{r0, r1, r4, r5, r6, lr}
   16710:	e2811004 	add	r1, r1, #4
   16714:	e2400001 	sub	r0, r0, #1
   16718:	ebfff191 	bl	12d64 <parse_arg_all>
   1671c:	e3500000 	cmp	r0, #0
   16720:	e1a04000 	mov	r4, r0
   16724:	e58d0004 	str	r0, [sp, #4]
   16728:	1a00000b 	bne	1675c <cmd_gatt_discover_full+0x50>
   1672c:	e59f008c 	ldr	r0, [pc, #140]	; 167c0 <cmd_gatt_discover_full+0xb4>
   16730:	e28d1004 	add	r1, sp, #4
   16734:	e08f0000 	add	r0, pc, r0
   16738:	ebfff3da 	bl	136a8 <parse_arg_uint16>
   1673c:	e59d4004 	ldr	r4, [sp, #4]
   16740:	e3540000 	cmp	r4, #0
   16744:	e1a06000 	mov	r6, r0
   16748:	0a000006 	beq	16768 <cmd_gatt_discover_full+0x5c>
   1674c:	e59f0070 	ldr	r0, [pc, #112]	; 167c4 <cmd_gatt_discover_full+0xb8>
   16750:	e08f0000 	add	r0, pc, r0
   16754:	ebffec8d 	bl	11990 <puts@plt>
   16758:	e59d4004 	ldr	r4, [sp, #4]
   1675c:	e1a00004 	mov	r0, r4
   16760:	e28dd008 	add	sp, sp, #8
   16764:	e8bd8070 	pop	{r4, r5, r6, pc}
   16768:	eb0029d9 	bl	20ed4 <btshell_conn_find.lto_priv.227>
   1676c:	e2505000 	subs	r5, r0, #0
   16770:	1a000008 	bne	16798 <cmd_gatt_discover_full+0x8c>
   16774:	e59f004c 	ldr	r0, [pc, #76]	; 167c8 <cmd_gatt_discover_full+0xbc>
   16778:	e3a01007 	mov	r1, #7
   1677c:	e58d1004 	str	r1, [sp, #4]
   16780:	e08f0000 	add	r0, pc, r0
   16784:	ebffec48 	bl	118ac <printf@plt>
   16788:	eafffff2 	b	16758 <cmd_gatt_discover_full+0x4c>
   1678c:	e5903000 	ldr	r3, [r0]
   16790:	e5853004 	str	r3, [r5, #4]
   16794:	eb002d3f 	bl	21c98 <btshell_svc_delete.lto_priv.234>
   16798:	e5950004 	ldr	r0, [r5, #4]
   1679c:	e3500000 	cmp	r0, #0
   167a0:	1afffff9 	bne	1678c <cmd_gatt_discover_full+0x80>
   167a4:	e59f3020 	ldr	r3, [pc, #32]	; 167cc <cmd_gatt_discover_full+0xc0>
   167a8:	e1a00006 	mov	r0, r6
   167ac:	e3a02001 	mov	r2, #1
   167b0:	e08f3003 	add	r3, pc, r3
   167b4:	e583230c 	str	r2, [r3, #780]	; 0x30c
   167b8:	ebfff008 	bl	127e0 <ble_gattc_disc_all_svcs.constprop.85>
   167bc:	eaffffe6 	b	1675c <cmd_gatt_discover_full+0x50>
   167c0:	00024803 	.word	0x00024803
   167c4:	0001fe7b 	.word	0x0001fe7b
   167c8:	00020a96 	.word	0x00020a96
   167cc:	00039114 	.word	0x00039114

000167d0 <cmd_gatt_discover_service>:
   167d0:	e92d40f0 	push	{r4, r5, r6, r7, lr}
   167d4:	e2811004 	add	r1, r1, #4
   167d8:	e24dd044 	sub	sp, sp, #68	; 0x44
   167dc:	e2400001 	sub	r0, r0, #1
   167e0:	ebfff15f 	bl	12d64 <parse_arg_all>
   167e4:	e3500000 	cmp	r0, #0
   167e8:	e58d0000 	str	r0, [sp]
   167ec:	1a00000b 	bne	16820 <cmd_gatt_discover_service+0x50>
   167f0:	e59f00f8 	ldr	r0, [pc, #248]	; 168f0 <cmd_gatt_discover_service+0x120>
   167f4:	e1a0100d 	mov	r1, sp
   167f8:	e08f0000 	add	r0, pc, r0
   167fc:	ebfff3a9 	bl	136a8 <parse_arg_uint16>
   16800:	e59d3000 	ldr	r3, [sp]
   16804:	e3530000 	cmp	r3, #0
   16808:	e1a06000 	mov	r6, r0
   1680c:	0a000005 	beq	16828 <cmd_gatt_discover_service+0x58>
   16810:	e59f00dc 	ldr	r0, [pc, #220]	; 168f4 <cmd_gatt_discover_service+0x124>
   16814:	e08f0000 	add	r0, pc, r0
   16818:	ebffec5c 	bl	11990 <puts@plt>
   1681c:	e59d0000 	ldr	r0, [sp]
   16820:	e28dd044 	add	sp, sp, #68	; 0x44
   16824:	e8bd80f0 	pop	{r4, r5, r6, r7, pc}
   16828:	e28d7004 	add	r7, sp, #4
   1682c:	e1a00007 	mov	r0, r7
   16830:	ebfff349 	bl	1355c <parse_arg_uuid.constprop.2>
   16834:	e3500000 	cmp	r0, #0
   16838:	e1a05000 	mov	r5, r0
   1683c:	e58d0000 	str	r0, [sp]
   16840:	1a000021 	bne	168cc <cmd_gatt_discover_service+0xfc>
   16844:	eb005c16 	bl	2d8a4 <ble_gattc_proc_alloc.lto_priv.204>
   16848:	e2504000 	subs	r4, r0, #0
   1684c:	03a05006 	moveq	r5, #6
   16850:	0a000011 	beq	1689c <cmd_gatt_discover_service+0xcc>
   16854:	e1c460b8 	strh	r6, [r4, #8]
   16858:	e284600c 	add	r6, r4, #12
   1685c:	e3a03002 	mov	r3, #2
   16860:	e1a00007 	mov	r0, r7
   16864:	e5c4300a 	strb	r3, [r4, #10]
   16868:	e1a01006 	mov	r1, r6
   1686c:	eb0035b8 	bl	23f54 <ble_uuid_to_any>
   16870:	e59f3080 	ldr	r3, [pc, #128]	; 168f8 <cmd_gatt_discover_service+0x128>
   16874:	e1c452b0 	strh	r5, [r4, #32]
   16878:	e28d1018 	add	r1, sp, #24
   1687c:	e08f3003 	add	r3, pc, r3
   16880:	e5845028 	str	r5, [r4, #40]	; 0x28
   16884:	e5843024 	str	r3, [r4, #36]	; 0x24
   16888:	e1a00006 	mov	r0, r6
   1688c:	eb0035f1 	bl	24058 <ble_uuid_to_str>
   16890:	e1a00004 	mov	r0, r4
   16894:	eb006fc1 	bl	327a0 <ble_gattc_disc_svc_uuid_tx.lto_priv.235>
   16898:	e1a05000 	mov	r5, r0
   1689c:	e1a01005 	mov	r1, r5
   168a0:	e1a00004 	mov	r0, r4
   168a4:	eb005abe 	bl	2d3a4 <ble_gattc_process_status.lto_priv.205>
   168a8:	e58d5000 	str	r5, [sp]
   168ac:	e59d0000 	ldr	r0, [sp]
   168b0:	e3500000 	cmp	r0, #0
   168b4:	0affffd9 	beq	16820 <cmd_gatt_discover_service+0x50>
   168b8:	e1a01000 	mov	r1, r0
   168bc:	e59f0038 	ldr	r0, [pc, #56]	; 168fc <cmd_gatt_discover_service+0x12c>
   168c0:	e08f0000 	add	r0, pc, r0
   168c4:	ebffebf8 	bl	118ac <printf@plt>
   168c8:	eaffffd3 	b	1681c <cmd_gatt_discover_service+0x4c>
   168cc:	e3500002 	cmp	r0, #2
   168d0:	1a000003 	bne	168e4 <cmd_gatt_discover_service+0x114>
   168d4:	e1a00006 	mov	r0, r6
   168d8:	ebffefc0 	bl	127e0 <ble_gattc_disc_all_svcs.constprop.85>
   168dc:	e58d0000 	str	r0, [sp]
   168e0:	eafffff1 	b	168ac <cmd_gatt_discover_service+0xdc>
   168e4:	e59f0014 	ldr	r0, [pc, #20]	; 16900 <cmd_gatt_discover_service+0x130>
   168e8:	e08f0000 	add	r0, pc, r0
   168ec:	eaffffc9 	b	16818 <cmd_gatt_discover_service+0x48>
   168f0:	0002473f 	.word	0x0002473f
   168f4:	0001fdb7 	.word	0x0001fdb7
   168f8:	0000b6a8 	.word	0x0000b6a8
   168fc:	0002098d 	.word	0x0002098d
   16900:	0002094c 	.word	0x0002094c

00016904 <cmd_gatt_discover_descriptor>:
   16904:	e92d41f3 	push	{r0, r1, r4, r5, r6, r7, r8, lr}
   16908:	e2811004 	add	r1, r1, #4
   1690c:	e2400001 	sub	r0, r0, #1
   16910:	ebfff113 	bl	12d64 <parse_arg_all>
   16914:	e2504000 	subs	r4, r0, #0
   16918:	1a000008 	bne	16940 <cmd_gatt_discover_descriptor+0x3c>
   1691c:	e28d2006 	add	r2, sp, #6
   16920:	e28d1002 	add	r1, sp, #2
   16924:	e28d0004 	add	r0, sp, #4
   16928:	ebfff4b5 	bl	13c04 <cmd_parse_conn_start_end>
   1692c:	e2504000 	subs	r4, r0, #0
   16930:	0a000005 	beq	1694c <cmd_gatt_discover_descriptor+0x48>
   16934:	e59f0084 	ldr	r0, [pc, #132]	; 169c0 <cmd_gatt_discover_descriptor+0xbc>
   16938:	e08f0000 	add	r0, pc, r0
   1693c:	ebffec13 	bl	11990 <puts@plt>
   16940:	e1a00004 	mov	r0, r4
   16944:	e28dd008 	add	sp, sp, #8
   16948:	e8bd81f0 	pop	{r4, r5, r6, r7, r8, pc}
   1694c:	e1dd80b4 	ldrh	r8, [sp, #4]
   16950:	e1dd60b2 	ldrh	r6, [sp, #2]
   16954:	e1dd70b6 	ldrh	r7, [sp, #6]
   16958:	eb005bd1 	bl	2d8a4 <ble_gattc_proc_alloc.lto_priv.204>
   1695c:	e3a03006 	mov	r3, #6
   16960:	e2505000 	subs	r5, r0, #0
   16964:	01a04003 	moveq	r4, r3
   16968:	0a00000a 	beq	16998 <cmd_gatt_discover_descriptor+0x94>
   1696c:	e5c5300a 	strb	r3, [r5, #10]
   16970:	e59f304c 	ldr	r3, [pc, #76]	; 169c4 <cmd_gatt_discover_descriptor+0xc0>
   16974:	e5854018 	str	r4, [r5, #24]
   16978:	e08f3003 	add	r3, pc, r3
   1697c:	e1c580b8 	strh	r8, [r5, #8]
   16980:	e1c560bc 	strh	r6, [r5, #12]
   16984:	e1c560be 	strh	r6, [r5, #14]
   16988:	e1c571b0 	strh	r7, [r5, #16]
   1698c:	e5853014 	str	r3, [r5, #20]
   16990:	eb006ee7 	bl	32534 <ble_gattc_disc_all_dscs_tx.lto_priv.236>
   16994:	e1a04000 	mov	r4, r0
   16998:	e1a01004 	mov	r1, r4
   1699c:	e1a00005 	mov	r0, r5
   169a0:	eb005a7f 	bl	2d3a4 <ble_gattc_process_status.lto_priv.205>
   169a4:	e3540000 	cmp	r4, #0
   169a8:	0affffe4 	beq	16940 <cmd_gatt_discover_descriptor+0x3c>
   169ac:	e59f0014 	ldr	r0, [pc, #20]	; 169c8 <cmd_gatt_discover_descriptor+0xc4>
   169b0:	e1a01004 	mov	r1, r4
   169b4:	e08f0000 	add	r0, pc, r0
   169b8:	ebffebbb 	bl	118ac <printf@plt>
   169bc:	eaffffdf 	b	16940 <cmd_gatt_discover_descriptor+0x3c>
   169c0:	0002080e 	.word	0x0002080e
   169c4:	0000b408 	.word	0x0000b408
   169c8:	000208bc 	.word	0x000208bc

000169cc <cmd_gatt_discover_characteristic>:
   169cc:	e92d41f0 	push	{r4, r5, r6, r7, r8, lr}
   169d0:	e2811004 	add	r1, r1, #4
   169d4:	e24dd048 	sub	sp, sp, #72	; 0x48
   169d8:	e2400001 	sub	r0, r0, #1
   169dc:	ebfff0e0 	bl	12d64 <parse_arg_all>
   169e0:	e2504000 	subs	r4, r0, #0
   169e4:	1a000008 	bne	16a0c <cmd_gatt_discover_characteristic+0x40>
   169e8:	e28d200a 	add	r2, sp, #10
   169ec:	e28d1006 	add	r1, sp, #6
   169f0:	e28d0008 	add	r0, sp, #8
   169f4:	ebfff482 	bl	13c04 <cmd_parse_conn_start_end>
   169f8:	e2504000 	subs	r4, r0, #0
   169fc:	0a000005 	beq	16a18 <cmd_gatt_discover_characteristic+0x4c>
   16a00:	e59f0118 	ldr	r0, [pc, #280]	; 16b20 <cmd_gatt_discover_characteristic+0x154>
   16a04:	e08f0000 	add	r0, pc, r0
   16a08:	ebffebe0 	bl	11990 <puts@plt>
   16a0c:	e1a00004 	mov	r0, r4
   16a10:	e28dd048 	add	sp, sp, #72	; 0x48
   16a14:	e8bd81f0 	pop	{r4, r5, r6, r7, r8, pc}
   16a18:	e28d700c 	add	r7, sp, #12
   16a1c:	e1a00007 	mov	r0, r7
   16a20:	ebfff2cd 	bl	1355c <parse_arg_uuid.constprop.2>
   16a24:	e2504000 	subs	r4, r0, #0
   16a28:	1a000023 	bne	16abc <cmd_gatt_discover_characteristic+0xf0>
   16a2c:	e1dd40b8 	ldrh	r4, [sp, #8]
   16a30:	e1dd60b6 	ldrh	r6, [sp, #6]
   16a34:	e1dd80ba 	ldrh	r8, [sp, #10]
   16a38:	eb005b99 	bl	2d8a4 <ble_gattc_proc_alloc.lto_priv.204>
   16a3c:	e2505000 	subs	r5, r0, #0
   16a40:	0a000031 	beq	16b0c <cmd_gatt_discover_characteristic+0x140>
   16a44:	e1c540b8 	strh	r4, [r5, #8]
   16a48:	e285400c 	add	r4, r5, #12
   16a4c:	e3a03005 	mov	r3, #5
   16a50:	e1a00007 	mov	r0, r7
   16a54:	e5c5300a 	strb	r3, [r5, #10]
   16a58:	e1a01004 	mov	r1, r4
   16a5c:	eb00353c 	bl	23f54 <ble_uuid_to_any>
   16a60:	e2463001 	sub	r3, r6, #1
   16a64:	e1c532b0 	strh	r3, [r5, #32]
   16a68:	e28d1020 	add	r1, sp, #32
   16a6c:	e59f30b0 	ldr	r3, [pc, #176]	; 16b24 <cmd_gatt_discover_characteristic+0x158>
   16a70:	e1a00004 	mov	r0, r4
   16a74:	e1c582b2 	strh	r8, [r5, #34]	; 0x22
   16a78:	e08f3003 	add	r3, pc, r3
   16a7c:	e5856028 	str	r6, [r5, #40]	; 0x28
   16a80:	e5853024 	str	r3, [r5, #36]	; 0x24
   16a84:	eb003573 	bl	24058 <ble_uuid_to_str>
   16a88:	e1a00005 	mov	r0, r5
   16a8c:	eb007240 	bl	33394 <ble_gattc_disc_chr_uuid_tx.lto_priv.237>
   16a90:	e1a04000 	mov	r4, r0
   16a94:	e1a01004 	mov	r1, r4
   16a98:	e1a00005 	mov	r0, r5
   16a9c:	eb005a40 	bl	2d3a4 <ble_gattc_process_status.lto_priv.205>
   16aa0:	e3540000 	cmp	r4, #0
   16aa4:	0affffd8 	beq	16a0c <cmd_gatt_discover_characteristic+0x40>
   16aa8:	e59f0078 	ldr	r0, [pc, #120]	; 16b28 <cmd_gatt_discover_characteristic+0x15c>
   16aac:	e1a01004 	mov	r1, r4
   16ab0:	e08f0000 	add	r0, pc, r0
   16ab4:	ebffeb7c 	bl	118ac <printf@plt>
   16ab8:	eaffffd3 	b	16a0c <cmd_gatt_discover_characteristic+0x40>
   16abc:	e3540002 	cmp	r4, #2
   16ac0:	1a000013 	bne	16b14 <cmd_gatt_discover_characteristic+0x148>
   16ac4:	e1dd70b8 	ldrh	r7, [sp, #8]
   16ac8:	e1dd40b6 	ldrh	r4, [sp, #6]
   16acc:	e1dd60ba 	ldrh	r6, [sp, #10]
   16ad0:	eb005b73 	bl	2d8a4 <ble_gattc_proc_alloc.lto_priv.204>
   16ad4:	e2505000 	subs	r5, r0, #0
   16ad8:	0a00000b 	beq	16b0c <cmd_gatt_discover_characteristic+0x140>
   16adc:	e3a03004 	mov	r3, #4
   16ae0:	e5c5300a 	strb	r3, [r5, #10]
   16ae4:	e2443001 	sub	r3, r4, #1
   16ae8:	e1c530bc 	strh	r3, [r5, #12]
   16aec:	e59f3038 	ldr	r3, [pc, #56]	; 16b2c <cmd_gatt_discover_characteristic+0x160>
   16af0:	e1c570b8 	strh	r7, [r5, #8]
   16af4:	e08f3003 	add	r3, pc, r3
   16af8:	e1c560be 	strh	r6, [r5, #14]
   16afc:	e5853010 	str	r3, [r5, #16]
   16b00:	e5854014 	str	r4, [r5, #20]
   16b04:	eb007253 	bl	33458 <ble_gattc_disc_all_chrs_tx.lto_priv.238>
   16b08:	eaffffe0 	b	16a90 <cmd_gatt_discover_characteristic+0xc4>
   16b0c:	e3a04006 	mov	r4, #6
   16b10:	eaffffdf 	b	16a94 <cmd_gatt_discover_characteristic+0xc8>
   16b14:	e59f0014 	ldr	r0, [pc, #20]	; 16b30 <cmd_gatt_discover_characteristic+0x164>
   16b18:	e08f0000 	add	r0, pc, r0
   16b1c:	eaffffb9 	b	16a08 <cmd_gatt_discover_characteristic+0x3c>
   16b20:	00020742 	.word	0x00020742
   16b24:	0000b758 	.word	0x0000b758
   16b28:	000207e6 	.word	0x000207e6
   16b2c:	0000b6dc 	.word	0x0000b6dc
   16b30:	0002071c 	.word	0x0002071c

00016b34 <cli_btshell.lto_priv.270>:
   16b34:	e92d43f0 	push	{r4, r5, r6, r7, r8, r9, lr}
   16b38:	e24dd04c 	sub	sp, sp, #76	; 0x4c
   16b3c:	e28d6004 	add	r6, sp, #4
   16b40:	e28d5008 	add	r5, sp, #8
   16b44:	e3a07000 	mov	r7, #0
   16b48:	e58d0004 	str	r0, [sp, #4]
   16b4c:	e1a00006 	mov	r0, r6
   16b50:	eb003294 	bl	235a8 <cli_get_token>
   16b54:	e5d04000 	ldrb	r4, [r0]
   16b58:	e3540000 	cmp	r4, #0
   16b5c:	0a000007 	beq	16b80 <cli_btshell.lto_priv.270+0x4c>
   16b60:	e7850107 	str	r0, [r5, r7, lsl #2]
   16b64:	e2877001 	add	r7, r7, #1
   16b68:	e3570010 	cmp	r7, #16
   16b6c:	1afffff6 	bne	16b4c <cli_btshell.lto_priv.270+0x18>
   16b70:	e59f01c4 	ldr	r0, [pc, #452]	; 16d3c <cli_btshell.lto_priv.270+0x208>
   16b74:	e08f0000 	add	r0, pc, r0
   16b78:	ebffeb84 	bl	11990 <puts@plt>
   16b7c:	ea000038 	b	16c64 <cli_btshell.lto_priv.270+0x130>
   16b80:	e3570000 	cmp	r7, #0
   16b84:	0a000036 	beq	16c64 <cli_btshell.lto_priv.270+0x130>
   16b88:	e59f51b0 	ldr	r5, [pc, #432]	; 16d40 <cli_btshell.lto_priv.270+0x20c>
   16b8c:	e59f91b0 	ldr	r9, [pc, #432]	; 16d44 <cli_btshell.lto_priv.270+0x210>
   16b90:	e08f5005 	add	r5, pc, r5
   16b94:	e59d6008 	ldr	r6, [sp, #8]
   16b98:	e59d800c 	ldr	r8, [sp, #12]
   16b9c:	e2855d05 	add	r5, r5, #320	; 0x140
   16ba0:	e08f9009 	add	r9, pc, r9
   16ba4:	e1a01009 	mov	r1, r9
   16ba8:	e1a00006 	mov	r0, r6
   16bac:	eb003270 	bl	23574 <cli_string_cmmpare>
   16bb0:	e3500000 	cmp	r0, #0
   16bb4:	0a00004b 	beq	16ce8 <cli_btshell.lto_priv.270+0x1b4>
   16bb8:	e3570002 	cmp	r7, #2
   16bbc:	1a00003d 	bne	16cb8 <cli_btshell.lto_priv.270+0x184>
   16bc0:	e5951000 	ldr	r1, [r5]
   16bc4:	e1a00008 	mov	r0, r8
   16bc8:	eb003269 	bl	23574 <cli_string_cmmpare>
   16bcc:	e3500000 	cmp	r0, #0
   16bd0:	0a000052 	beq	16d20 <cli_btshell.lto_priv.270+0x1ec>
   16bd4:	e59f216c 	ldr	r2, [pc, #364]	; 16d48 <cli_btshell.lto_priv.270+0x214>
   16bd8:	e3a0300c 	mov	r3, #12
   16bdc:	e08f2002 	add	r2, pc, r2
   16be0:	e0242493 	mla	r4, r3, r4, r2
   16be4:	e5944148 	ldr	r4, [r4, #328]	; 0x148
   16be8:	e3540000 	cmp	r4, #0
   16bec:	0a000021 	beq	16c78 <cli_btshell.lto_priv.270+0x144>
   16bf0:	e5943000 	ldr	r3, [r4]
   16bf4:	e3530000 	cmp	r3, #0
   16bf8:	1a000021 	bne	16c84 <cli_btshell.lto_priv.270+0x150>
   16bfc:	e5943004 	ldr	r3, [r4, #4]
   16c00:	e3530000 	cmp	r3, #0
   16c04:	0a000018 	beq	16c6c <cli_btshell.lto_priv.270+0x138>
   16c08:	e59f013c 	ldr	r0, [pc, #316]	; 16d4c <cli_btshell.lto_priv.270+0x218>
   16c0c:	e08f0000 	add	r0, pc, r0
   16c10:	ebffeb5e 	bl	11990 <puts@plt>
   16c14:	e5940004 	ldr	r0, [r4, #4]
   16c18:	ebffeb5c 	bl	11990 <puts@plt>
   16c1c:	e5943008 	ldr	r3, [r4, #8]
   16c20:	e3530000 	cmp	r3, #0
   16c24:	0a00000e 	beq	16c64 <cli_btshell.lto_priv.270+0x130>
   16c28:	e59f0120 	ldr	r0, [pc, #288]	; 16d50 <cli_btshell.lto_priv.270+0x21c>
   16c2c:	e08f0000 	add	r0, pc, r0
   16c30:	ebffeb56 	bl	11990 <puts@plt>
   16c34:	e5943008 	ldr	r3, [r4, #8]
   16c38:	e3530000 	cmp	r3, #0
   16c3c:	0a000008 	beq	16c64 <cli_btshell.lto_priv.270+0x130>
   16c40:	e59f610c 	ldr	r6, [pc, #268]	; 16d54 <cli_btshell.lto_priv.270+0x220>
   16c44:	e3a05000 	mov	r5, #0
   16c48:	e08f6006 	add	r6, pc, r6
   16c4c:	e5943008 	ldr	r3, [r4, #8]
   16c50:	e0832005 	add	r2, r3, r5
   16c54:	e7931005 	ldr	r1, [r3, r5]
   16c58:	e2855008 	add	r5, r5, #8
   16c5c:	e3510000 	cmp	r1, #0
   16c60:	1a000010 	bne	16ca8 <cli_btshell.lto_priv.270+0x174>
   16c64:	e28dd04c 	add	sp, sp, #76	; 0x4c
   16c68:	e8bd83f0 	pop	{r4, r5, r6, r7, r8, r9, pc}
   16c6c:	e5943008 	ldr	r3, [r4, #8]
   16c70:	e3530000 	cmp	r3, #0
   16c74:	1affffeb 	bne	16c28 <cli_btshell.lto_priv.270+0xf4>
   16c78:	e59f00d8 	ldr	r0, [pc, #216]	; 16d58 <cli_btshell.lto_priv.270+0x224>
   16c7c:	e08f0000 	add	r0, pc, r0
   16c80:	eaffffbc 	b	16b78 <cli_btshell.lto_priv.270+0x44>
   16c84:	e59f00d0 	ldr	r0, [pc, #208]	; 16d5c <cli_btshell.lto_priv.270+0x228>
   16c88:	e08f0000 	add	r0, pc, r0
   16c8c:	ebffeb3f 	bl	11990 <puts@plt>
   16c90:	e5940000 	ldr	r0, [r4]
   16c94:	ebffeb3d 	bl	11990 <puts@plt>
   16c98:	e5943004 	ldr	r3, [r4, #4]
   16c9c:	e3530000 	cmp	r3, #0
   16ca0:	0affffdd 	beq	16c1c <cli_btshell.lto_priv.270+0xe8>
   16ca4:	eaffffd7 	b	16c08 <cli_btshell.lto_priv.270+0xd4>
   16ca8:	e5922004 	ldr	r2, [r2, #4]
   16cac:	e1a00006 	mov	r0, r6
   16cb0:	ebffeafd 	bl	118ac <printf@plt>
   16cb4:	eaffffe4 	b	16c4c <cli_btshell.lto_priv.270+0x118>
   16cb8:	e59f50a0 	ldr	r5, [pc, #160]	; 16d60 <cli_btshell.lto_priv.270+0x22c>
   16cbc:	e3a04000 	mov	r4, #0
   16cc0:	e3a0600c 	mov	r6, #12
   16cc4:	e08f5005 	add	r5, pc, r5
   16cc8:	e2855d05 	add	r5, r5, #320	; 0x140
   16ccc:	e0030496 	mul	r3, r6, r4
   16cd0:	e2844001 	add	r4, r4, #1
   16cd4:	e7930005 	ldr	r0, [r3, r5]
   16cd8:	ebffeb2c 	bl	11990 <puts@plt>
   16cdc:	e354004a 	cmp	r4, #74	; 0x4a
   16ce0:	1afffff9 	bne	16ccc <cli_btshell.lto_priv.270+0x198>
   16ce4:	eaffffde 	b	16c64 <cli_btshell.lto_priv.270+0x130>
   16ce8:	e5951000 	ldr	r1, [r5]
   16cec:	e1a00006 	mov	r0, r6
   16cf0:	eb00321f 	bl	23574 <cli_string_cmmpare>
   16cf4:	e3500000 	cmp	r0, #0
   16cf8:	0a000008 	beq	16d20 <cli_btshell.lto_priv.270+0x1ec>
   16cfc:	e59f2060 	ldr	r2, [pc, #96]	; 16d64 <cli_btshell.lto_priv.270+0x230>
   16d00:	e3a0300c 	mov	r3, #12
   16d04:	e28d1008 	add	r1, sp, #8
   16d08:	e1a00007 	mov	r0, r7
   16d0c:	e08f2002 	add	r2, pc, r2
   16d10:	e0242493 	mla	r4, r3, r4, r2
   16d14:	e5943144 	ldr	r3, [r4, #324]	; 0x144
   16d18:	e12fff33 	blx	r3
   16d1c:	eaffffd0 	b	16c64 <cli_btshell.lto_priv.270+0x130>
   16d20:	e2844001 	add	r4, r4, #1
   16d24:	e285500c 	add	r5, r5, #12
   16d28:	e354004a 	cmp	r4, #74	; 0x4a
   16d2c:	1affff9c 	bne	16ba4 <cli_btshell.lto_priv.270+0x70>
   16d30:	e59f0030 	ldr	r0, [pc, #48]	; 16d68 <cli_btshell.lto_priv.270+0x234>
   16d34:	e08f0000 	add	r0, pc, r0
   16d38:	eaffff8e 	b	16b78 <cli_btshell.lto_priv.270+0x44>
   16d3c:	0002074c 	.word	0x0002074c
   16d40:	00036b4c 	.word	0x00036b4c
   16d44:	00020736 	.word	0x00020736
   16d48:	00036b00 	.word	0x00036b00
   16d4c:	000206cf 	.word	0x000206cf
   16d50:	000206d3 	.word	0x000206d3
   16d54:	000206c3 	.word	0x000206c3
   16d58:	00020666 	.word	0x00020666
   16d5c:	0002066e 	.word	0x0002066e
   16d60:	00036a18 	.word	0x00036a18
   16d64:	000369d0 	.word	0x000369d0
   16d68:	000205e0 	.word	0x000205e0

00016d6c <cmd_scan_filter_clr>:
   16d6c:	e92d401f 	push	{r0, r1, r2, r3, r4, lr}
   16d70:	e59f0098 	ldr	r0, [pc, #152]	; 16e10 <cmd_scan_filter_clr+0xa4>
   16d74:	e08f0000 	add	r0, pc, r0
   16d78:	ebffeb04 	bl	11990 <puts@plt>
   16d7c:	eb0053e5 	bl	2bd18 <ble_hs_scan_report_filter_print.lto_priv.239>
   16d80:	e3a03000 	mov	r3, #0
   16d84:	e3a02001 	mov	r2, #1
   16d88:	e58d3000 	str	r3, [sp]
   16d8c:	e28d100f 	add	r1, sp, #15
   16d90:	e30f0f20 	movw	r0, #65312	; 0xff20
   16d94:	e5cd300f 	strb	r3, [sp, #15]
   16d98:	eb004fd9 	bl	2ad04 <ble_hs_hci_cmd_tx>
   16d9c:	e2504000 	subs	r4, r0, #0
   16da0:	1a00000e 	bne	16de0 <cmd_scan_filter_clr+0x74>
   16da4:	e59f3068 	ldr	r3, [pc, #104]	; 16e14 <cmd_scan_filter_clr+0xa8>
   16da8:	f2c00050 	vmov.i32	q8, #0	; 0x00000000
   16dac:	e1a02004 	mov	r2, r4
   16db0:	e08f3003 	add	r3, pc, r3
   16db4:	e2831e31 	add	r1, r3, #784	; 0x310
   16db8:	e5d30373 	ldrb	r0, [r3, #883]	; 0x373
   16dbc:	e1520000 	cmp	r2, r0
   16dc0:	ba00000c 	blt	16df8 <cmd_scan_filter_clr+0x8c>
   16dc4:	e59f004c 	ldr	r0, [pc, #76]	; 16e18 <cmd_scan_filter_clr+0xac>
   16dc8:	e3a02000 	mov	r2, #0
   16dcc:	e5c32373 	strb	r2, [r3, #883]	; 0x373
   16dd0:	e08f0000 	add	r0, pc, r0
   16dd4:	ebffeaed 	bl	11990 <puts@plt>
   16dd8:	eb0053ce 	bl	2bd18 <ble_hs_scan_report_filter_print.lto_priv.239>
   16ddc:	ea000002 	b	16dec <cmd_scan_filter_clr+0x80>
   16de0:	e59f0034 	ldr	r0, [pc, #52]	; 16e1c <cmd_scan_filter_clr+0xb0>
   16de4:	e08f0000 	add	r0, pc, r0
   16de8:	ebffeae8 	bl	11990 <puts@plt>
   16dec:	e1a00004 	mov	r0, r4
   16df0:	e28dd010 	add	sp, sp, #16
   16df4:	e8bd8010 	pop	{r4, pc}
   16df8:	e1a00001 	mov	r0, r1
   16dfc:	e2822001 	add	r2, r2, #1
   16e00:	f4400a0d 	vst1.8	{d16-d17}, [r0]!
   16e04:	e2811021 	add	r1, r1, #33	; 0x21
   16e08:	f4400a0f 	vst1.8	{d16-d17}, [r0]
   16e0c:	eaffffe9 	b	16db8 <cmd_scan_filter_clr+0x4c>
   16e10:	000205b1 	.word	0x000205b1
   16e14:	00038b14 	.word	0x00038b14
   16e18:	0002058b 	.word	0x0002058b
   16e1c:	00020559 	.word	0x00020559

00016e20 <cmd_scan_filter_set>:
   16e20:	e92d4ff0 	push	{r4, r5, r6, r7, r8, r9, sl, fp, lr}
   16e24:	e2811004 	add	r1, r1, #4
   16e28:	e24dd07c 	sub	sp, sp, #124	; 0x7c
   16e2c:	e2400001 	sub	r0, r0, #1
   16e30:	ebffefcb 	bl	12d64 <parse_arg_all>
   16e34:	e3500000 	cmp	r0, #0
   16e38:	e1a04000 	mov	r4, r0
   16e3c:	e58d000c 	str	r0, [sp, #12]
   16e40:	1a00000e 	bne	16e80 <cmd_scan_filter_set+0x60>
   16e44:	e1a01000 	mov	r1, r0
   16e48:	e28d500c 	add	r5, sp, #12
   16e4c:	e59f035c 	ldr	r0, [pc, #860]	; 171b0 <cmd_scan_filter_set+0x390>
   16e50:	e3a02024 	mov	r2, #36	; 0x24
   16e54:	e1a03005 	mov	r3, r5
   16e58:	e08f0000 	add	r0, pc, r0
   16e5c:	ebfff1f3 	bl	13630 <parse_arg_long_bounds>
   16e60:	e59d600c 	ldr	r6, [sp, #12]
   16e64:	e3560000 	cmp	r6, #0
   16e68:	e1a07000 	mov	r7, r0
   16e6c:	0a000006 	beq	16e8c <cmd_scan_filter_set+0x6c>
   16e70:	e59f033c 	ldr	r0, [pc, #828]	; 171b4 <cmd_scan_filter_set+0x394>
   16e74:	e08f0000 	add	r0, pc, r0
   16e78:	ebffeac4 	bl	11990 <puts@plt>
   16e7c:	e59d400c 	ldr	r4, [sp, #12]
   16e80:	e1a00004 	mov	r0, r4
   16e84:	e28dd07c 	add	sp, sp, #124	; 0x7c
   16e88:	e8bd8ff0 	pop	{r4, r5, r6, r7, r8, r9, sl, fp, pc}
   16e8c:	e59f1324 	ldr	r1, [pc, #804]	; 171b8 <cmd_scan_filter_set+0x398>
   16e90:	e1a03005 	mov	r3, r5
   16e94:	e59f0320 	ldr	r0, [pc, #800]	; 171bc <cmd_scan_filter_set+0x39c>
   16e98:	e1a02004 	mov	r2, r4
   16e9c:	e08f1001 	add	r1, pc, r1
   16ea0:	e2811e51 	add	r1, r1, #1296	; 0x510
   16ea4:	e08f0000 	add	r0, pc, r0
   16ea8:	e281100c 	add	r1, r1, #12
   16eac:	ebfff093 	bl	13100 <parse_arg_kv_dflt>
